(dp1
S'output'
p2
S"<type 'exceptions.AttributeError'> 'NoneType' object has no attribute 'first_name'"
p3
sS'layer'
p4
S'/Users/hairongwu/Desktop/web2py/applications/SlugHero/views/forum/generalForum.html'
p5
sS'code'
p6
S'response.write(\'<!DOCTYPE html>\\n<!--[if (gt IE 9)|!(IE)]><!--> <html class="no-js" lang="\', escape=False)\nresponse.write(T.accepted_language or \'en\')\nresponse.write(\'"> <!--<![endif]-->\\n  <head>\\n    <meta charset="utf-8">\\n    <!-- www.phpied.com/conditional-comments-block-downloads/ -->\\n    <!-- Always force latest IE rendering engine\\n         (even in intranet) & Chrome Frame\\n         Remove this if you use the .htaccess -->\\n    <meta http-equiv="X-UA-Compatible" content="IE=edge\', escape=False)\nresponse.write(not request.is_local and \',chrome=1\' or \'\')\nresponse.write(\'">\\n    <!--  Mobile Viewport Fix\\n          j.mp/mobileviewport & davidbcalhoun.com/2010/viewport-metatag\\n          device-width: Occupy full width of the screen in its current orientation\\n          initial-scale = 1.0 retains dimensions instead of zooming out if page height > device height\\n          user-scalable = yes allows the user to zoom in -->\\n    <meta name="viewport" content="width=device-width, initial-scale=1.0">\\n    <title>\', escape=False)\nresponse.write(response.title or request.application)\nresponse.write(\'</title>\\n    <!-- http://dev.w3.org/html5/markup/meta.name.html -->\\n    <meta name="application-name" content="\', escape=False)\nresponse.write(request.application)\nresponse.write(\'">\\n    <!-- Speaking of Google, don\\\'t forget to set your site up:\\n         http://google.com/webmasters -->\\n    <meta name="google-site-verification" content="">\\n    <!-- include stylesheets -->\\n    <link rel="stylesheet" href="\', escape=False)\nresponse.write(URL(\'static\',\'css/bootstrap.min.css\'))\nresponse.write(\'"/>\\n    <link rel="stylesheet" href="\', escape=False)\nresponse.write(URL(\'static\',\'css/web2py-bootstrap3.css\'))\nresponse.write(\'"/>\\n    <link rel="shortcut icon" href="\', escape=False)\nresponse.write(URL(\'static\',\'images/favicon.ico\'))\nresponse.write(\'" type="image/x-icon">\\n    <link rel="apple-touch-icon" href="\', escape=False)\nresponse.write(URL(\'static\',\'images/favicon.png\'))\nresponse.write(\'">\\n    <!-- All JavaScript at the bottom, except for Modernizr which enables\\n         HTML5 elements & feature detects -->\\n    <script src="\', escape=False)\nresponse.write(URL(\'static\',\'js/modernizr-2.8.3.min.js\'))\nresponse.write(\'"></script>\\n    <!--[if lt IE 9]>\\n        <script src="\', escape=False)\nresponse.write(URL(\'static\',\'js/respond-1.4.2.min.js\'))\nresponse.write(\'"></script>\\n        <![endif]-->\\n    <!-- Favicons -->\\n    \', escape=False)\nresponse.write(\'<script type="text/javascript"><!--\\n    // These variables are used by the web2py_ajax_init function in web2py_ajax.js (which is loaded below).\\n    var w2p_ajax_confirm_message = "\', escape=False)\nresponse.write(T(\'Are you sure you want to delete this object?\'))\nresponse.write(\'";\\n    var w2p_ajax_disable_with_message = "\', escape=False)\nresponse.write(T(\'Working...\'))\nresponse.write(\'";\\n    var w2p_ajax_date_format = "\', escape=False)\nresponse.write(T(\'%Y-%m-%d\'))\nresponse.write(\'";\\n    var w2p_ajax_datetime_format = "\', escape=False)\nresponse.write(T(\'%Y-%m-%d %H:%M:%S\'))\nresponse.write(\'";\\n    var ajax_error_500 = \\\'\', escape=False)\nresponse.write(T.M(\'An error occured, please [[reload %s]] the page\') % URL(args=request.args, vars=request.get_vars))\nresponse.write("\'\\n    //--></script>\\n", escape=False)\nresponse.files.insert(0,URL(\'static\',\'js/jquery.js\'))\nresponse.files.insert(1,URL(\'static\',\'css/calendar.css\'))\nresponse.files.insert(2,URL(\'static\',\'js/calendar.js\'))\nresponse.files.insert(3,URL(\'static\',\'js/web2py.js\'))\nresponse.include_meta()\nresponse.include_files()\nresponse.write(\'\\n\', escape=False)\nresponse.write(\' <!-- this includes jquery.js, calendar.js/.css and web2py.js -->\\n    \', escape=False)\nresponse.write(\'\\n    \', escape=False)\n# using sidebars need to know what sidebar you want to use\nmc0 = \'col-md-12\'\nmc1 = \'col-md-9\'\nmc2 = \'col-md-6\'\nleft_sidebar_enabled = globals().get(\'left_sidebar_enabled\', False)\nright_sidebar_enabled = globals().get(\'right_sidebar_enabled\', False)\nmiddle_column = {0: mc0, 1: mc1, 2: mc2}[\n(left_sidebar_enabled and 1 or 0)+(right_sidebar_enabled and 1 or 0)]\nresponse.write(\'\\n  </head>\\n  <body>\\n    <!--[if lt IE 8]><p class="browserupgrade">You are using an <strong>outdated</strong> browser. Please <a href="http://browsehappy.com/">upgrade your browser</a> to improve your experience.</p><![endif]-->\\n    <div class="w2p_flash alert alert-dismissable">\', escape=False)\nresponse.write(response.flash or \'\')\nresponse.write(\'</div>\\n    <!-- Navbar ======================================= -->\\n    <nav class="navbar navbar-default navbar-fixed-top" role="navigation">\\n      <div class="container-fluid">\\n        <div class="navbar-header">\\n          <button type="button" class="navbar-toggle" data-toggle="collapse" data-target=".navbar-collapse">\\n            <span class="sr-only">Toggle navigation</span>\\n            <span class="icon-bar"></span>\\n            <span class="icon-bar"></span>\\n            <span class="icon-bar"></span>\\n          </button>\\n          \', escape=False)\nresponse.write(response.logo or \'\')\nresponse.write(\'\\n        </div>\\n        <div class="collapse navbar-collapse navbar-ex1-collapse">\\n          <ul class="nav navbar-nav navbar-right">\\n            \', escape=False)\nresponse.write(\'auth\' in globals() and auth.navbar(\'Welcome\',mode=\'dropdown\') or \'\')\nresponse.write(\'\\n          </ul>\\n          \', escape=False)\nif response.menu:\n    response.write(\'\\n          \', escape=False)\n    response.write(MENU(response.menu, _class=\'nav navbar-nav\',li_class=\'dropdown\',ul_class=\'dropdown-menu\'))\n    response.write(\'\\n          \', escape=False)\n    pass\nresponse.write(\'\\n        </div>\\n      </div>\\n    </nav>\\n    <!-- Masthead ===================================== -->    \\n    \', escape=False)\nresponse.write(\'\\n    \', escape=False)\nresponse.write(\'\\n    <!-- Main ========================================= -->\\n    <!-- Begin page content -->\\n    <div class="container-fluid main-container">\\n      \', escape=False)\nif left_sidebar_enabled:\n    response.write(\'\\n        <div class="col-md-3 left-sidebar">\\n            \', escape=False)\n    response.write(\'\\n            <h3>Left Sidebar</h3>\\n            <p></p>\\n            \', escape=False)\n    response.write(\'\\n        </div>\\n      \', escape=False)\n    pass\nresponse.write(\'\\n\\n      <div class="\', escape=False)\nresponse.write(middle_column)\nresponse.write(\'">\\n        \', escape=False)\nresponse.write(\'\\n        \', escape=False)\nresponse.write(\'\\n\\n<style>\\ntable, th, td {\\n    border: 1px solid gray;\\n    border-color: #184343 #184340 #f8f6df #184348;\\n    border-collapse: collapse;\\n    margin: 0 auto;\\n}\\n</style>\\n\\n<body style="background:#184343">\\n<h1 style="font-family:verdana;font-size:300%;color:#ffd9b5;" >\\n  Welcome to UCSC Forum</h1>\\n<div class = "well"  style="background:#184348">\\n<table style="width:78%">\\n\\t<tr bgcolor="#2c2a30" style="font-family:geneva;font-size:120%;color:#ffd9b9;height:50px">\\n      <th>&nbsp;&nbsp;&nbsp;Thread</th>\\n      <th>&nbsp;&nbsp;&nbsp;Thread Starter</th>\\n      <th>&nbsp;&nbsp;&nbsp;Last Post</th>\\n      <th>&nbsp;&nbsp;&nbsp;Replies</th>\\n   </tr>\\n    \', escape=False)\nfor forum in forums:\n    response.write(\'\\n    \', escape=False)\n    student = db.auth_user(forum.user_id)\n    response.write(\'\\n    \', escape=False)\n    swithColor +=1\n    response.write(\'\\n    \', escape=False)\n    numOfReplies = db(db.comm.post_id==forum.id).select()\n    response.write(\'\\n    \', escape=False)\n    lastPost = db(db.comm.post_id==forum.id).select(db.comm.ALL, orderby=~db.comm.datetime, limitby=(0,1))\n    response.write(\'\\n\\n    \', escape=False)\n    if (len(lastPost) !=0):\n        response.write(\'\\n      \', escape=False)\n        for lastStudent in lastPost:\n            response.write(\'\\n       \', escape=False)\n            lastPostStudent = db.auth_user(lastStudent.user_id)\n            response.write(\'\\n      \', escape=False)\n            pass\n        response.write(\'\\n    \', escape=False)\n        pass\n    response.write(\'\\n    \', escape=False)\n    if (swithColor% 2 ==1):\n        response.write(\'\\n      <tr bgcolor="#f8f6df" style="font-family:verdana;font-size:100%;color:black;height:40px">\\n        <td>\\n        \\t<font style="color:#black;">\\n          &nbsp;&nbsp;\', escape=False)\n        response.write((A(forum.title, _href=URL(\'showEachForum\', args=forum.id))))\n        response.write(\'\\n          </font>\\n        </td>\\n        <td><div style = "text-align:center;color: #e98c3a">\\n          \', escape=False)\n        response.write((student.first_name+\' \'+student.last_name))\n        response.write(\'</div>\\n        </td>\\n        <td>\\n          \', escape=False)\n        if (len(lastPost) !=0):\n            response.write(\'\\n            <div style = "text-align:center;color:#e98c3a">\\n            \', escape=False)\n            response.write((lastPostStudent.first_name+\' \'+lastPostStudent.last_name))\n            response.write(\'</div>\\n          \', escape=False)\n        else:\n            response.write(\'\\n            <div style = "text-align:center;color:#e98c3a">---</div>\\n          \', escape=False)\n            pass\n        response.write(\'\\n        </td>\\n        <td><div style = "text-align:center;color: #e98c3a">\\n          \', escape=False)\n        response.write(len(numOfReplies))\n        response.write(\'</div>\\n        </td>\\n      </tr>\\n    \', escape=False)\n    else:\n        response.write(\'\\n      <tr bgcolor="#eff5d1" style="font-family:verdana;font-size:100%;color:black;height:40px">\\n        <td>\\n          &nbsp;&nbsp;\', escape=False)\n        response.write((A(forum.title, _href=URL(\'showEachForum\', args=forum.id))))\n        response.write(\'\\n        </td>\\n        <td><div style = "text-align:center;color:#e98c3a">\\n          \', escape=False)\n        response.write((student.first_name+\' \'+student.last_name))\n        response.write(\'</div>\\n        </td>\\n        <td>\\n        \', escape=False)\n        if (len(lastPost) !=0):\n            response.write(\'\\n          <div style = "text-align:center;color:#e98c3a">\\n          \', escape=False)\n            response.write((lastPostStudent.first_name+\' \'+lastPostStudent.last_name))\n            response.write(\'</div>\\n        \', escape=False)\n        else:\n            response.write(\'\\n          <div style = "text-align:center;color:#e98c3a">---</div>\\n        \', escape=False)\n            pass\n        response.write(\'\\n        </td>\\n        <td><div style = "text-align:center;color: #e98c3a">\\n          \', escape=False)\n        response.write(len(numOfReplies))\n        response.write(\'</div>\\n        </td>\\n      </tr>\\n    \', escape=False)\n        pass\n    response.write(\'  \\n\\n    \', escape=False)\n    pass\nresponse.write(\'\\n</table>\\n</div>\\n<br>\\n\\n\', escape=False)\nif (auth.user_id == None):\n    response.write(\'\\n\\t<div style = "text-align:right">\\n\\t\\t<font style="font-size:100%;">\\n\\t\\t\\t<i>\', escape=False)\n    response.write(A(\'Login to Create A Discussion\',_href=URL(\'default\',\'user\')))\n    response.write(\'&nbsp;&nbsp;&nbsp;&nbsp;&nbsp;&nbsp;&nbsp;&nbsp;&nbsp;&nbsp;&nbsp;&nbsp;&nbsp;&nbsp;&nbsp;&nbsp;&nbsp;&nbsp;&nbsp;&nbsp;&nbsp;&nbsp;&nbsp;&nbsp;&nbsp;&nbsp;&nbsp;&nbsp;&nbsp;&nbsp;&nbsp;&nbsp;&nbsp;&nbsp;&nbsp;&nbsp;&nbsp;&nbsp;&nbsp;&nbsp;&nbsp;&nbsp;&nbsp;&nbsp;&nbsp;&nbsp;&nbsp;&nbsp;&nbsp;&nbsp;&nbsp;</i>\\n\\t\\t</font>\\n\\t</div>\\n\', escape=False)\nelse:\n    response.write(\'\\n\\t<div style = "text-align:right">\\n\\t\', escape=False)\n    response.write(A(\'Create A Discussion\',  _class="btn btn-primary", _href=URL(\'addForum\')))\n    response.write(\'\\n  &nbsp;&nbsp;&nbsp;&nbsp;&nbsp;&nbsp;&nbsp;&nbsp;&nbsp;&nbsp;&nbsp;&nbsp;&nbsp;&nbsp;&nbsp;&nbsp;&nbsp;&nbsp;&nbsp;&nbsp;&nbsp;&nbsp;&nbsp;&nbsp;&nbsp;&nbsp;&nbsp;&nbsp;&nbsp;&nbsp;&nbsp;&nbsp;&nbsp;&nbsp;&nbsp;&nbsp;&nbsp;&nbsp;&nbsp;&nbsp;&nbsp;&nbsp;&nbsp;&nbsp;&nbsp;&nbsp;&nbsp;&nbsp;&nbsp;&nbsp;\\n\\t</div>\\n\', escape=False)\n    pass\nresponse.write(\'\\n\\n<div style = "text-align:right">\\n\', escape=False)\nif number!=0:\n    response.write(\'\\n<p style="color:#e98c3a;">Page of \', escape=False)\n    response.write(page+1)\n    response.write(\'/\', escape=False)\n    response.write(number)\n    response.write(\'\\n\', escape=False)\n    pass\nresponse.write(\'\\n\', escape=False)\nif page>1:\n    response.write(\'\\n\', escape=False)\n    response.write(A(\'<<\',_class="btn btn-link", _href=(URL(args=(page-2)))))\n    response.write(\'\\n\', escape=False)\n    pass\nresponse.write(\'\\n\', escape=False)\nif page>0:\n    response.write(\'\\n\', escape=False)\n    response.write(A(\'<\',_class="btn btn-link", _href=(URL(args=(page-1)))))\n    response.write(\'\\n\', escape=False)\n    pass\nresponse.write(\'\\n\', escape=False)\nif (page <= 2 and number <= 5):\n    response.write(\'\\n\', escape=False)\n    for showNum in range(0, number):\n        response.write(\'\\n\', escape=False)\n        response.write(A(showNum+1,_class="btn btn-link", _href=(URL(args=(showNum)))))\n        response.write(\'\\n\', escape=False)\n        pass\n    response.write(\'\\n\', escape=False)\n    pass\nresponse.write(\'\\n\\n\', escape=False)\npass\nresponse.write(\'\\n\', escape=False)\nif (page <= 2 and number >= 5):\n    response.write(\'\\n\', escape=False)\n    for showNum in range(0, 5):\n        response.write(\'\\n\', escape=False)\n        response.write(A(showNum+1,_class="btn btn-link", _href=(URL(args=(showNum)))))\n        response.write(\'\\n\', escape=False)\n        pass\n    response.write(\'\\n\', escape=False)\n    pass\nresponse.write(\'\\n\\n\', escape=False)\nif (page+5)>(number) and page>2 and number >5:\n    response.write(\'\\n\', escape=False)\n    for showNum in range(page-count, number):\n        response.write(\'\\n\', escape=False)\n        response.write(A(showNum+1,_class="btn btn-link", _href=(URL(args=(showNum)))))\n        response.write(\'\\n\', escape=False)\n        pass\n    response.write(\'\\n\', escape=False)\n    pass\nresponse.write(\'\\n\', escape=False)\nif (page+5)>(number) and page>2 and number <5:\n    response.write(\'\\n\', escape=False)\n    for showNum in range(0, number):\n        response.write(\'\\n\', escape=False)\n        response.write(A(showNum+1,_class="btn btn-link", _href=(URL(args=(showNum)))))\n        response.write(\'\\n\', escape=False)\n        pass\n    response.write(\'\\n\', escape=False)\n    pass\nresponse.write(\'\\n\\n\', escape=False)\nif (page >2 and (page+5) <= number):\n    response.write(\'\\n\', escape=False)\n    for showNum in range(page-2, page+3) :\n        response.write(\'\\n\', escape=False)\n        response.write(A(showNum+1,_class="btn btn-link", _href=(URL(args=(showNum)))))\n        response.write(\'\\n\', escape=False)\n        pass\n    response.write(\'\\n\', escape=False)\n    pass\nresponse.write(\'\\n\', escape=False)\nif number -page >=1:\n    response.write(\'\\n\', escape=False)\n    response.write(A(\'>\',_class="btn btn-link", _href=(URL(args=(page+1)))))\n    response.write(\'\\n\', escape=False)\n    pass\nresponse.write(\'\\n\', escape=False)\nif number - page >2:\n    response.write(\'\\n\', escape=False)\n    response.write(A(\'>>\',_class="btn btn-link", _href=(URL(args=(page+2)))))\n    response.write(\'\\n\', escape=False)\n    pass\nresponse.write(\'\\n&nbsp;&nbsp;&nbsp;&nbsp;&nbsp;&nbsp;&nbsp;&nbsp;&nbsp;&nbsp;&nbsp;&nbsp;&nbsp;&nbsp;&nbsp;&nbsp;&nbsp;&nbsp;&nbsp;&nbsp;&nbsp;&nbsp;&nbsp;&nbsp;&nbsp;&nbsp;&nbsp;&nbsp;&nbsp;&nbsp;&nbsp;&nbsp;&nbsp;&nbsp;&nbsp;&nbsp;&nbsp;&nbsp;&nbsp;&nbsp;&nbsp;&nbsp;&nbsp;&nbsp;&nbsp;&nbsp;\\n</div>\\n\\n</body>\\n\\n\', escape=False)\nresponse.write(\'\\n        \', escape=False)\nresponse.write(\'\\n      </div>\\n\\n      \', escape=False)\nif right_sidebar_enabled:\n    response.write(\'\\n        <div class="col-md-3">\\n            \', escape=False)\n    response.write(\'\\n            <h3>Right Sidebar</h3>\\n            <p></p>\\n            \', escape=False)\n    response.write(\'\\n        </div>\\n      \', escape=False)\n    pass\nresponse.write(\'\\n\\n    </div>\\n\\n    \', escape=False)\nresponse.write(\' <!-- this is default footer -->      \\n    <footer class="footer">\\n      <div class="container-fluid">\\n        <div class="copyright pull-left">\', escape=False)\nresponse.write(T(\'Copyright\'))\nresponse.write(\' &#169; \', escape=False)\nresponse.write(request.now.year)\nresponse.write(\'</div>\\n          <div id="poweredBy" class="pull-right">\\n            \', escape=False)\nresponse.write(T(\'Powered by\'))\nresponse.write(\'\\n            <a href="http://www.web2py.com/">web2py</a>\\n          </div>\\n      </div>\\n    </footer>\\n    \', escape=False)\nresponse.write(\'\\n    <!-- The javascript =============================== -->\\n    <script src="\', escape=False)\nresponse.write(URL(\'static\',\'js/bootstrap.min.js\'))\nresponse.write(\'"></script>\\n    <script src="\', escape=False)\nresponse.write(URL(\'static\',\'js/web2py-bootstrap3.js\'))\nresponse.write(\'"></script>\\n    \', escape=False)\nresponse.write(\'\\n    \', escape=False)\nif response.google_analytics_id:\n    response.write(\'\\n    <!-- Analytics ==================================== -->\\n    <script src="\', escape=False)\n    response.write(URL(\'static\',\'js/analytics.min.js\'))\n    response.write(\'"></script>\\n    <script type="text/javascript">\\n      analytics.initialize({\\n      \\\'Google Analytics\\\':{trackingId:\\\'\', escape=False)\n    response.write(response.google_analytics_id)\n    response.write("\'}\\n      });\\n    </script>\\n    ", escape=False)\n    pass\nresponse.write(\'\\n    <!-- Share ============================y============ -->\\n    <script src="\', escape=False)\nresponse.write(URL(\'static\',\'js/share.js\',vars=dict(static=URL(\'static\',\'images\'))))\nresponse.write(\'"></script>\\n  </body>\\n</html>\\n\', escape=False)'
p7
sS'snapshot'
p8
(dp9
S'exception'
p10
(dp11
S'__hash__'
p12
S"<method-wrapper '__hash__' of exceptions.AttributeError object>"
p13
sS'__setattr__'
p14
S"<method-wrapper '__setattr__' of exceptions.AttributeError object>"
p15
sS'__reduce_ex__'
p16
S'<built-in method __reduce_ex__ of exceptions.AttributeError object>'
p17
sS'__getslice__'
p18
S"<method-wrapper '__getslice__' of exceptions.AttributeError object>"
p19
sS'__getitem__'
p20
S"<method-wrapper '__getitem__' of exceptions.AttributeError object>"
p21
sS'__setstate__'
p22
S'<built-in method __setstate__ of exceptions.AttributeError object>'
p23
sS'args'
p24
S'("\'NoneType\' object has no attribute \'first_name\'",)'
p25
sS'__reduce__'
p26
S'<built-in method __reduce__ of exceptions.AttributeError object>'
p27
sS'__str__'
p28
S"<method-wrapper '__str__' of exceptions.AttributeError object>"
p29
sS'__format__'
p30
S'<built-in method __format__ of exceptions.AttributeError object>'
p31
sS'__getattribute__'
p32
S"<method-wrapper '__getattribute__' of exceptions.AttributeError object>"
p33
sS'__class__'
p34
S"<type 'exceptions.AttributeError'>"
p35
sS'__unicode__'
p36
S'<built-in method __unicode__ of exceptions.AttributeError object>'
p37
sS'__delattr__'
p38
S"<method-wrapper '__delattr__' of exceptions.AttributeError object>"
p39
sS'__subclasshook__'
p40
S'<built-in method __subclasshook__ of type object>'
p41
sS'__repr__'
p42
S"<method-wrapper '__repr__' of exceptions.AttributeError object>"
p43
sS'__dict__'
p44
S'{}'
p45
sS'__sizeof__'
p46
S'<built-in method __sizeof__ of exceptions.AttributeError object>'
p47
sS'__doc__'
p48
S"'Attribute not found.'"
p49
sS'__init__'
p50
S"<method-wrapper '__init__' of exceptions.AttributeError object>"
p51
sS'__new__'
p52
S'<built-in method __new__ of type object>'
p53
ssS'evalue'
p54
S"'NoneType' object has no attribute 'first_name'"
p55
sS'request'
p56
cgluon.html
XML_unpickle
p57
(S's\x14\x89\x00\x00<div><table><tr><td style="font-weight:bold;vertical-align:top;">ajax</td><td style="vertical-align:top;">:</td><td><div>False</div></td></tr><tr><td style="font-weight:bold;vertical-align:top;">application</td><td style="vertical-align:top;">:</td><td><div>SlugHero</div></td></tr><tr><td style="font-weight:bold;vertical-align:top;">args</td><td style="vertical-align:top;">:</td><td><div><table></table></div></td></tr><tr><td style="font-weight:bold;vertical-align:top;">cid</td><td style="vertical-align:top;">:</td><td><div>None</div></td></tr><tr><td style="font-weight:bold;vertical-align:top;">client</td><td style="vertical-align:top;">:</td><td><div>127.0.0.1</div></td></tr><tr><td style="font-weight:bold;vertical-align:top;">controller</td><td style="vertical-align:top;">:</td><td><div>forum</div></td></tr><tr><td style="font-weight:bold;vertical-align:top;">cookies</td><td style="vertical-align:top;">:</td><td><div><table><tr><td style="font-weight:bold;vertical-align:top;">session_id_admin</td><td style="vertical-align:top;">:</td><td><div>127.0.0.1-e8732aec-90c7-483f-a618-1a499e7bf452<table><tr><td style="font-weight:bold;vertical-align:top;">comment</td><td style="vertical-align:top;">:</td><td><div></div></td></tr><tr><td style="font-weight:bold;vertical-align:top;">domain</td><td style="vertical-align:top;">:</td><td><div></div></td></tr><tr><td style="font-weight:bold;vertical-align:top;">expires</td><td style="vertical-align:top;">:</td><td><div></div></td></tr><tr><td style="font-weight:bold;vertical-align:top;">httponly</td><td style="vertical-align:top;">:</td><td><div></div></td></tr><tr><td style="font-weight:bold;vertical-align:top;">max-age</td><td style="vertical-align:top;">:</td><td><div></div></td></tr><tr><td style="font-weight:bold;vertical-align:top;">path</td><td style="vertical-align:top;">:</td><td><div></div></td></tr><tr><td style="font-weight:bold;vertical-align:top;">secure</td><td style="vertical-align:top;">:</td><td><div></div></td></tr><tr><td style="font-weight:bold;vertical-align:top;">version</td><td style="vertical-align:top;">:</td><td><div></div></td></tr></table></div></td></tr><tr><td style="font-weight:bold;vertical-align:top;">session_id_examples</td><td style="vertical-align:top;">:</td><td><div>True<table><tr><td style="font-weight:bold;vertical-align:top;">comment</td><td style="vertical-align:top;">:</td><td><div></div></td></tr><tr><td style="font-weight:bold;vertical-align:top;">domain</td><td style="vertical-align:top;">:</td><td><div></div></td></tr><tr><td style="font-weight:bold;vertical-align:top;">expires</td><td style="vertical-align:top;">:</td><td><div></div></td></tr><tr><td style="font-weight:bold;vertical-align:top;">httponly</td><td style="vertical-align:top;">:</td><td><div></div></td></tr><tr><td style="font-weight:bold;vertical-align:top;">max-age</td><td style="vertical-align:top;">:</td><td><div></div></td></tr><tr><td style="font-weight:bold;vertical-align:top;">path</td><td style="vertical-align:top;">:</td><td><div></div></td></tr><tr><td style="font-weight:bold;vertical-align:top;">secure</td><td style="vertical-align:top;">:</td><td><div></div></td></tr><tr><td style="font-weight:bold;vertical-align:top;">version</td><td style="vertical-align:top;">:</td><td><div></div></td></tr></table></div></td></tr><tr><td style="font-weight:bold;vertical-align:top;">session_id_image2</td><td style="vertical-align:top;">:</td><td><div>127.0.0.1-ef8dc0a3-e49a-4464-8743-ae2e935dacf0<table><tr><td style="font-weight:bold;vertical-align:top;">comment</td><td style="vertical-align:top;">:</td><td><div></div></td></tr><tr><td style="font-weight:bold;vertical-align:top;">domain</td><td style="vertical-align:top;">:</td><td><div></div></td></tr><tr><td style="font-weight:bold;vertical-align:top;">expires</td><td style="vertical-align:top;">:</td><td><div></div></td></tr><tr><td style="font-weight:bold;vertical-align:top;">httponly</td><td style="vertical-align:top;">:</td><td><div></div></td></tr><tr><td style="font-weight:bold;vertical-align:top;">max-age</td><td style="vertical-align:top;">:</td><td><div></div></td></tr><tr><td style="font-weight:bold;vertical-align:top;">path</td><td style="vertical-align:top;">:</td><td><div></div></td></tr><tr><td style="font-weight:bold;vertical-align:top;">secure</td><td style="vertical-align:top;">:</td><td><div></div></td></tr><tr><td style="font-weight:bold;vertical-align:top;">version</td><td style="vertical-align:top;">:</td><td><div></div></td></tr></table></div></td></tr><tr><td style="font-weight:bold;vertical-align:top;">session_id_mywiki</td><td style="vertical-align:top;">:</td><td><div>127.0.0.1-063f7e19-b1a3-41b7-ab7e-cf3d387fb7ae<table><tr><td style="font-weight:bold;vertical-align:top;">comment</td><td style="vertical-align:top;">:</td><td><div></div></td></tr><tr><td style="font-weight:bold;vertical-align:top;">domain</td><td style="vertical-align:top;">:</td><td><div></div></td></tr><tr><td style="font-weight:bold;vertical-align:top;">expires</td><td style="vertical-align:top;">:</td><td><div></div></td></tr><tr><td style="font-weight:bold;vertical-align:top;">httponly</td><td style="vertical-align:top;">:</td><td><div></div></td></tr><tr><td style="font-weight:bold;vertical-align:top;">max-age</td><td style="vertical-align:top;">:</td><td><div></div></td></tr><tr><td style="font-weight:bold;vertical-align:top;">path</td><td style="vertical-align:top;">:</td><td><div></div></td></tr><tr><td style="font-weight:bold;vertical-align:top;">secure</td><td style="vertical-align:top;">:</td><td><div></div></td></tr><tr><td style="font-weight:bold;vertical-align:top;">version</td><td style="vertical-align:top;">:</td><td><div></div></td></tr></table></div></td></tr><tr><td style="font-weight:bold;vertical-align:top;">session_id_salelist</td><td style="vertical-align:top;">:</td><td><div>127.0.0.1-8ea19b48-a07b-4b79-9e7a-8cd84dcb48b2<table><tr><td style="font-weight:bold;vertical-align:top;">comment</td><td style="vertical-align:top;">:</td><td><div></div></td></tr><tr><td style="font-weight:bold;vertical-align:top;">domain</td><td style="vertical-align:top;">:</td><td><div></div></td></tr><tr><td style="font-weight:bold;vertical-align:top;">expires</td><td style="vertical-align:top;">:</td><td><div></div></td></tr><tr><td style="font-weight:bold;vertical-align:top;">httponly</td><td style="vertical-align:top;">:</td><td><div></div></td></tr><tr><td style="font-weight:bold;vertical-align:top;">max-age</td><td style="vertical-align:top;">:</td><td><div></div></td></tr><tr><td style="font-weight:bold;vertical-align:top;">path</td><td style="vertical-align:top;">:</td><td><div></div></td></tr><tr><td style="font-weight:bold;vertical-align:top;">secure</td><td style="vertical-align:top;">:</td><td><div></div></td></tr><tr><td style="font-weight:bold;vertical-align:top;">version</td><td style="vertical-align:top;">:</td><td><div></div></td></tr></table></div></td></tr><tr><td style="font-weight:bold;vertical-align:top;">session_id_slughero</td><td style="vertical-align:top;">:</td><td><div>127.0.0.1-4ebef065-a3b9-42e2-981d-565697235a01<table><tr><td style="font-weight:bold;vertical-align:top;">comment</td><td style="vertical-align:top;">:</td><td><div></div></td></tr><tr><td style="font-weight:bold;vertical-align:top;">domain</td><td style="vertical-align:top;">:</td><td><div></div></td></tr><tr><td style="font-weight:bold;vertical-align:top;">expires</td><td style="vertical-align:top;">:</td><td><div></div></td></tr><tr><td style="font-weight:bold;vertical-align:top;">httponly</td><td style="vertical-align:top;">:</td><td><div></div></td></tr><tr><td style="font-weight:bold;vertical-align:top;">max-age</td><td style="vertical-align:top;">:</td><td><div></div></td></tr><tr><td style="font-weight:bold;vertical-align:top;">path</td><td style="vertical-align:top;">:</td><td><div></div></td></tr><tr><td style="font-weight:bold;vertical-align:top;">secure</td><td style="vertical-align:top;">:</td><td><div></div></td></tr><tr><td style="font-weight:bold;vertical-align:top;">version</td><td style="vertical-align:top;">:</td><td><div></div></td></tr></table></div></td></tr><tr><td style="font-weight:bold;vertical-align:top;">session_id_testajax</td><td style="vertical-align:top;">:</td><td><div>127.0.0.1-bf44bd5f-07af-4f19-b7a1-eb5d04999233<table><tr><td style="font-weight:bold;vertical-align:top;">comment</td><td style="vertical-align:top;">:</td><td><div></div></td></tr><tr><td style="font-weight:bold;vertical-align:top;">domain</td><td style="vertical-align:top;">:</td><td><div></div></td></tr><tr><td style="font-weight:bold;vertical-align:top;">expires</td><td style="vertical-align:top;">:</td><td><div></div></td></tr><tr><td style="font-weight:bold;vertical-align:top;">httponly</td><td style="vertical-align:top;">:</td><td><div></div></td></tr><tr><td style="font-weight:bold;vertical-align:top;">max-age</td><td style="vertical-align:top;">:</td><td><div></div></td></tr><tr><td style="font-weight:bold;vertical-align:top;">path</td><td style="vertical-align:top;">:</td><td><div></div></td></tr><tr><td style="font-weight:bold;vertical-align:top;">secure</td><td style="vertical-align:top;">:</td><td><div></div></td></tr><tr><td style="font-weight:bold;vertical-align:top;">version</td><td style="vertical-align:top;">:</td><td><div></div></td></tr></table></div></td></tr><tr><td style="font-weight:bold;vertical-align:top;">session_id_testcomp1</td><td style="vertical-align:top;">:</td><td><div>127.0.0.1-cd1cc44e-6602-47e6-a3f7-01b76fc0825b<table><tr><td style="font-weight:bold;vertical-align:top;">comment</td><td style="vertical-align:top;">:</td><td><div></div></td></tr><tr><td style="font-weight:bold;vertical-align:top;">domain</td><td style="vertical-align:top;">:</td><td><div></div></td></tr><tr><td style="font-weight:bold;vertical-align:top;">expires</td><td style="vertical-align:top;">:</td><td><div></div></td></tr><tr><td style="font-weight:bold;vertical-align:top;">httponly</td><td style="vertical-align:top;">:</td><td><div></div></td></tr><tr><td style="font-weight:bold;vertical-align:top;">max-age</td><td style="vertical-align:top;">:</td><td><div></div></td></tr><tr><td style="font-weight:bold;vertical-align:top;">path</td><td style="vertical-align:top;">:</td><td><div></div></td></tr><tr><td style="font-weight:bold;vertical-align:top;">secure</td><td style="vertical-align:top;">:</td><td><div></div></td></tr><tr><td style="font-weight:bold;vertical-align:top;">version</td><td style="vertical-align:top;">:</td><td><div></div></td></tr></table></div></td></tr><tr><td style="font-weight:bold;vertical-align:top;">session_id_testcond</td><td style="vertical-align:top;">:</td><td><div>127.0.0.1-47f77cb9-5941-4321-81df-54ca1a0c6df3<table><tr><td style="font-weight:bold;vertical-align:top;">comment</td><td style="vertical-align:top;">:</td><td><div></div></td></tr><tr><td style="font-weight:bold;vertical-align:top;">domain</td><td style="vertical-align:top;">:</td><td><div></div></td></tr><tr><td style="font-weight:bold;vertical-align:top;">expires</td><td style="vertical-align:top;">:</td><td><div></div></td></tr><tr><td style="font-weight:bold;vertical-align:top;">httponly</td><td style="vertical-align:top;">:</td><td><div></div></td></tr><tr><td style="font-weight:bold;vertical-align:top;">max-age</td><td style="vertical-align:top;">:</td><td><div></div></td></tr><tr><td style="font-weight:bold;vertical-align:top;">path</td><td style="vertical-align:top;">:</td><td><div></div></td></tr><tr><td style="font-weight:bold;vertical-align:top;">secure</td><td style="vertical-align:top;">:</td><td><div></div></td></tr><tr><td style="font-weight:bold;vertical-align:top;">version</td><td style="vertical-align:top;">:</td><td><div></div></td></tr></table></div></td></tr><tr><td style="font-weight:bold;vertical-align:top;">session_id_testjquery</td><td style="vertical-align:top;">:</td><td><div>127.0.0.1-af5fa0b0-003d-4ec6-bfed-eaaeabde15ac<table><tr><td style="font-weight:bold;vertical-align:top;">comment</td><td style="vertical-align:top;">:</td><td><div></div></td></tr><tr><td style="font-weight:bold;vertical-align:top;">domain</td><td style="vertical-align:top;">:</td><td><div></div></td></tr><tr><td style="font-weight:bold;vertical-align:top;">expires</td><td style="vertical-align:top;">:</td><td><div></div></td></tr><tr><td style="font-weight:bold;vertical-align:top;">httponly</td><td style="vertical-align:top;">:</td><td><div></div></td></tr><tr><td style="font-weight:bold;vertical-align:top;">max-age</td><td style="vertical-align:top;">:</td><td><div></div></td></tr><tr><td style="font-weight:bold;vertical-align:top;">path</td><td style="vertical-align:top;">:</td><td><div></div></td></tr><tr><td style="font-weight:bold;vertical-align:top;">secure</td><td style="vertical-align:top;">:</td><td><div></div></td></tr><tr><td style="font-weight:bold;vertical-align:top;">version</td><td style="vertical-align:top;">:</td><td><div></div></td></tr></table></div></td></tr><tr><td style="font-weight:bold;vertical-align:top;">session_id_welcome</td><td style="vertical-align:top;">:</td><td><div>127.0.0.1-d58a68b0-f0d6-4b49-94cd-e9ffd7673643<table><tr><td style="font-weight:bold;vertical-align:top;">comment</td><td style="vertical-align:top;">:</td><td><div></div></td></tr><tr><td style="font-weight:bold;vertical-align:top;">domain</td><td style="vertical-align:top;">:</td><td><div></div></td></tr><tr><td style="font-weight:bold;vertical-align:top;">expires</td><td style="vertical-align:top;">:</td><td><div></div></td></tr><tr><td style="font-weight:bold;vertical-align:top;">httponly</td><td style="vertical-align:top;">:</td><td><div></div></td></tr><tr><td style="font-weight:bold;vertical-align:top;">max-age</td><td style="vertical-align:top;">:</td><td><div></div></td></tr><tr><td style="font-weight:bold;vertical-align:top;">path</td><td style="vertical-align:top;">:</td><td><div></div></td></tr><tr><td style="font-weight:bold;vertical-align:top;">secure</td><td style="vertical-align:top;">:</td><td><div></div></td></tr><tr><td style="font-weight:bold;vertical-align:top;">version</td><td style="vertical-align:top;">:</td><td><div></div></td></tr></table></div></td></tr></table></div></td></tr><tr><td style="font-weight:bold;vertical-align:top;">env</td><td style="vertical-align:top;">:</td><td><div><table><tr><td style="font-weight:bold;vertical-align:top;">HTTP_ACCEPT</td><td style="vertical-align:top;">:</td><td><div>text/html,application/xhtml+xml,application/xml;q=0.9,image/webp,*/*;q=0.8</div></td></tr><tr><td style="font-weight:bold;vertical-align:top;">HTTP_ACCEPT_ENCODING</td><td style="vertical-align:top;">:</td><td><div>gzip, deflate, sdch</div></td></tr><tr><td style="font-weight:bold;vertical-align:top;">HTTP_ACCEPT_LANGUAGE</td><td style="vertical-align:top;">:</td><td><div>en-US,en;q=0.8,zh-CN;q=0.6</div></td></tr><tr><td style="font-weight:bold;vertical-align:top;">HTTP_CACHE_CONTROL</td><td style="vertical-align:top;">:</td><td><div>max-age=0</div></td></tr><tr><td style="font-weight:bold;vertical-align:top;">HTTP_CONNECTION</td><td style="vertical-align:top;">:</td><td><div>keep-alive</div></td></tr><tr><td style="font-weight:bold;vertical-align:top;">HTTP_COOKIE</td><td style="vertical-align:top;">:</td><td><div>session_id_mywiki=127.0.0.1-063f7e19-b1a3-41b7-ab7e-cf3d387fb7ae; session_id_testjquery=127.0.0.1-af5fa0b0-003d-4ec6-bfed-eaaeabde15ac; session_id_testcond=127.0.0.1-47f77cb9-5941-4321-81df-54ca1a0c6df3; session_id_testcomp1=127.0.0.1-cd1cc44e-6602-47e6-a3f7-01b76fc0825b; session_id_image2=127.0.0.1-ef8dc0a3-e49a-4464-8743-ae2e935dacf0; session_id_testajax=127.0.0.1-bf44bd5f-07af-4f19-b7a1-eb5d04999233; session_id_examples=True; session_id_welcome=127.0.0.1-d58a68b0-f0d6-4b49-94cd-e9ffd7673643; session_id_salelist=127.0.0.1-8ea19b48-a07b-4b79-9e7a-8cd84dcb48b2; session_id_admin=127.0.0.1-e8732aec-90c7-483f-a618-1a499e7bf452; session_id_slughero=127.0.0.1-4ebef065-a3b9-42e2-981d-565697235a01</div></td></tr><tr><td style="font-weight:bold;vertical-align:top;">HTTP_HOST</td><td style="vertical-align:top;">:</td><td><div>127.0.0.1:8000</div></td></tr><tr><td style="font-weight:bold;vertical-align:top;">HTTP_REFERER</td><td style="vertical-align:top;">:</td><td><div>http://127.0.0.1:8000/SlugHero/userProfile/showProfile/6?fromMenu=True</div></td></tr><tr><td style="font-weight:bold;vertical-align:top;">HTTP_UPGRADE_INSECURE_REQUESTS</td><td style="vertical-align:top;">:</td><td><div>1</div></td></tr><tr><td style="font-weight:bold;vertical-align:top;">HTTP_USER_AGENT</td><td style="vertical-align:top;">:</td><td><div>Mozilla/5.0 (Macintosh; Intel Mac OS X 10_11_3) AppleWebKit/537.36 (KHTML, like Gecko) Chrome/48.0.2564.116 Safari/537.36</div></td></tr><tr><td style="font-weight:bold;vertical-align:top;">PATH_INFO</td><td style="vertical-align:top;">:</td><td><div>/SlugHero/forum/generalForum</div></td></tr><tr><td style="font-weight:bold;vertical-align:top;">QUERY_STRING</td><td style="vertical-align:top;">:</td><td><div></div></td></tr><tr><td style="font-weight:bold;vertical-align:top;">REMOTE_ADDR</td><td style="vertical-align:top;">:</td><td><div>127.0.0.1</div></td></tr><tr><td style="font-weight:bold;vertical-align:top;">REMOTE_PORT</td><td style="vertical-align:top;">:</td><td><div>53982</div></td></tr><tr><td style="font-weight:bold;vertical-align:top;">REQUEST_METHOD</td><td style="vertical-align:top;">:</td><td><div>GET</div></td></tr><tr><td style="font-weight:bold;vertical-align:top;">SCRIPT_NAME</td><td style="vertical-align:top;">:</td><td><div></div></td></tr><tr><td style="font-weight:bold;vertical-align:top;">SERVER_NAME</td><td style="vertical-align:top;">:</td><td><div>dhcp-169-233-146-166.cruznet.ucsc.edu</div></td></tr><tr><td style="font-weight:bold;vertical-align:top;">SERVER_PORT</td><td style="vertical-align:top;">:</td><td><div>8000</div></td></tr><tr><td style="font-weight:bold;vertical-align:top;">SERVER_PROTOCOL</td><td style="vertical-align:top;">:</td><td><div>HTTP/1.1</div></td></tr><tr><td style="font-weight:bold;vertical-align:top;">SERVER_SOFTWARE</td><td style="vertical-align:top;">:</td><td><div>Rocket 1.2.6</div></td></tr><tr><td style="font-weight:bold;vertical-align:top;">app_folders</td><td style="vertical-align:top;">:</td><td><div>set([&#x27;/Users/hairongwu/Desktop/web2py/applications/welcome/&#x27;, &#x27;/Users/hairongwu/Desktop/web2py/applications/admin/&#x27;, &#x27;/Users/hairongwu/Desktop/web2py/applications/salelist/&#x27;, &#x27;/Users/hairongwu/Desktop/web2py/applications/SlugHero/&#x27;])</div></td></tr><tr><td style="font-weight:bold;vertical-align:top;">applications_parent</td><td style="vertical-align:top;">:</td><td><div>/Users/hairongwu/Desktop/web2py</div></td></tr><tr><td style="font-weight:bold;vertical-align:top;">cmd_args</td><td style="vertical-align:top;">:</td><td><div><table></table></div></td></tr><tr><td style="font-weight:bold;vertical-align:top;">cmd_options</td><td style="vertical-align:top;">:</td><td><div>&lt;Values at 0x102e4c368: {&#x27;verbose&#x27;: False, &#x27;ip&#x27;: &#x27;127.0.0.1&#x27;, &#x27;debuglevel&#x27;: 30, &#x27;with_scheduler&#x27;: False, &#x27;ips&#x27;: [&#x27;169.233.146.166&#x27;], &#x27;shutdown_timeout&#x27;: 5, &#x27;taskbar&#x27;: False, &#x27;with_coverage&#x27;: False, &#x27;scheduler_groups&#x27;: None, &#x27;port&#x27;: 8000, &#x27;maxthreads&#x27;: None, &#x27;softcron&#x27;: False, &#x27;server_name&#x27;: &#x27;dhcp-169-233-146-166.cruznet.ucsc.edu&#x27;, &#x27;bpython&#x27;: False, &#x27;nogui&#x27;: False, &#x27;pid_filename&#x27;: &#x27;httpserver.pid&#x27;, &#x27;print_errors&#x27;: False, &#x27;extcron&#x27;: False, &#x27;runcron&#x27;: False, &#x27;run_system_tests&#x27;: False, &#x27;test&#x27;: None, &#x27;folder&#x27;: &#x27;/Users/hairongwu/Desktop/web2py&#x27;, &#x27;config&#x27;: &#x27;&#x27;, &#x27;minthreads&#x27;: None, &#x27;shell&#x27;: None, &#x27;run&#x27;: &#x27;&#x27;, &#x27;log_filename&#x27;: &#x27;httpserver.log&#x27;, &#x27;profiler_dir&#x27;: None, &#x27;args&#x27;: [&#x27;&#x27;], &#x27;socket_timeout&#x27;: 5, &#x27;ssl_ca_certificate&#x27;: None, &#x27;scheduler&#x27;: None, &#x27;interfaces&#x27;: None, &#x27;ssl_private_key&#x27;: &#x27;&#x27;, &#x27;gae&#x27;: None, &#x27;password&#x27;: &#x27;&lt;ask&gt;&#x27;, &#x27;request_queue_size&#x27;: 5, &#x27;ssl_certificate&#x27;: &#x27;&#x27;, &#x27;cronjob&#x27;: False, &#x27;numthreads&#x27;: None, &#x27;quiet&#x27;: False, &#x27;import_models&#x27;: False, &#x27;timeout&#x27;: 10, &#x27;plain&#x27;: False, &#x27;nobanner&#x27;: False}&gt;</div></td></tr><tr><td style="font-weight:bold;vertical-align:top;">db_sessions</td><td style="vertical-align:top;">:</td><td><div>set([])</div></td></tr><tr><td style="font-weight:bold;vertical-align:top;">debugging</td><td style="vertical-align:top;">:</td><td><div>True</div></td></tr><tr><td style="font-weight:bold;vertical-align:top;">gluon_parent</td><td style="vertical-align:top;">:</td><td><div>/Users/hairongwu/Desktop/web2py</div></td></tr><tr><td style="font-weight:bold;vertical-align:top;">http_accept</td><td style="vertical-align:top;">:</td><td><div>text/html,application/xhtml+xml,application/xml;q=0.9,image/webp,*/*;q=0.8</div></td></tr><tr><td style="font-weight:bold;vertical-align:top;">http_accept_encoding</td><td style="vertical-align:top;">:</td><td><div>gzip, deflate, sdch</div></td></tr><tr><td style="font-weight:bold;vertical-align:top;">http_accept_language</td><td style="vertical-align:top;">:</td><td><div>en-US,en;q=0.8,zh-CN;q=0.6</div></td></tr><tr><td style="font-weight:bold;vertical-align:top;">http_cache_control</td><td style="vertical-align:top;">:</td><td><div>max-age=0</div></td></tr><tr><td style="font-weight:bold;vertical-align:top;">http_connection</td><td style="vertical-align:top;">:</td><td><div>keep-alive</div></td></tr><tr><td style="font-weight:bold;vertical-align:top;">http_cookie</td><td style="vertical-align:top;">:</td><td><div>session_id_mywiki=127.0.0.1-063f7e19-b1a3-41b7-ab7e-cf3d387fb7ae; session_id_testjquery=127.0.0.1-af5fa0b0-003d-4ec6-bfed-eaaeabde15ac; session_id_testcond=127.0.0.1-47f77cb9-5941-4321-81df-54ca1a0c6df3; session_id_testcomp1=127.0.0.1-cd1cc44e-6602-47e6-a3f7-01b76fc0825b; session_id_image2=127.0.0.1-ef8dc0a3-e49a-4464-8743-ae2e935dacf0; session_id_testajax=127.0.0.1-bf44bd5f-07af-4f19-b7a1-eb5d04999233; session_id_examples=True; session_id_welcome=127.0.0.1-d58a68b0-f0d6-4b49-94cd-e9ffd7673643; session_id_salelist=127.0.0.1-8ea19b48-a07b-4b79-9e7a-8cd84dcb48b2; session_id_admin=127.0.0.1-e8732aec-90c7-483f-a618-1a499e7bf452; session_id_slughero=127.0.0.1-4ebef065-a3b9-42e2-981d-565697235a01</div></td></tr><tr><td style="font-weight:bold;vertical-align:top;">http_host</td><td style="vertical-align:top;">:</td><td><div>127.0.0.1:8000</div></td></tr><tr><td style="font-weight:bold;vertical-align:top;">http_referer</td><td style="vertical-align:top;">:</td><td><div>http://127.0.0.1:8000/SlugHero/userProfile/showProfile/6?fromMenu=True</div></td></tr><tr><td style="font-weight:bold;vertical-align:top;">http_upgrade_insecure_requests</td><td style="vertical-align:top;">:</td><td><div>1</div></td></tr><tr><td style="font-weight:bold;vertical-align:top;">http_user_agent</td><td style="vertical-align:top;">:</td><td><div>Mozilla/5.0 (Macintosh; Intel Mac OS X 10_11_3) AppleWebKit/537.36 (KHTML, like Gecko) Chrome/48.0.2564.116 Safari/537.36</div></td></tr><tr><td style="font-weight:bold;vertical-align:top;">is_jython</td><td style="vertical-align:top;">:</td><td><div>False</div></td></tr><tr><td style="font-weight:bold;vertical-align:top;">is_pypy</td><td style="vertical-align:top;">:</td><td><div>False</div></td></tr><tr><td style="font-weight:bold;vertical-align:top;">is_source</td><td style="vertical-align:top;">:</td><td><div>True</div></td></tr><tr><td style="font-weight:bold;vertical-align:top;">local_hosts</td><td style="vertical-align:top;">:</td><td><div><table><tr><td><div>169.233.146.166</div></td></tr><tr><td><div>::1</div></td></tr><tr><td><div>::ffff:127.0.0.1</div></td></tr><tr><td><div>127.0.0.1</div></td></tr><tr><td><div>dhcp-169-233-146-166.cruznet.ucsc.edu</div></td></tr></table></div></td></tr><tr><td style="font-weight:bold;vertical-align:top;">path_info</td><td style="vertical-align:top;">:</td><td><div>/SlugHero/forum/generalForum</div></td></tr><tr><td style="font-weight:bold;vertical-align:top;">query_string</td><td style="vertical-align:top;">:</td><td><div></div></td></tr><tr><td style="font-weight:bold;vertical-align:top;">remote_addr</td><td style="vertical-align:top;">:</td><td><div>127.0.0.1</div></td></tr><tr><td style="font-weight:bold;vertical-align:top;">remote_port</td><td style="vertical-align:top;">:</td><td><div>53982</div></td></tr><tr><td style="font-weight:bold;vertical-align:top;">request_method</td><td style="vertical-align:top;">:</td><td><div>GET</div></td></tr><tr><td style="font-weight:bold;vertical-align:top;">request_uri</td><td style="vertical-align:top;">:</td><td><div>/SlugHero/forum/generalForum</div></td></tr><tr><td style="font-weight:bold;vertical-align:top;">script_name</td><td style="vertical-align:top;">:</td><td><div></div></td></tr><tr><td style="font-weight:bold;vertical-align:top;">server_name</td><td style="vertical-align:top;">:</td><td><div>dhcp-169-233-146-166.cruznet.ucsc.edu</div></td></tr><tr><td style="font-weight:bold;vertical-align:top;">server_port</td><td style="vertical-align:top;">:</td><td><div>8000</div></td></tr><tr><td style="font-weight:bold;vertical-align:top;">server_protocol</td><td style="vertical-align:top;">:</td><td><div>HTTP/1.1</div></td></tr><tr><td style="font-weight:bold;vertical-align:top;">server_software</td><td style="vertical-align:top;">:</td><td><div>Rocket 1.2.6</div></td></tr><tr><td style="font-weight:bold;vertical-align:top;">web2py_path</td><td style="vertical-align:top;">:</td><td><div>/Users/hairongwu/Desktop/web2py</div></td></tr><tr><td style="font-weight:bold;vertical-align:top;">web2py_version</td><td style="vertical-align:top;">:</td><td><div>2.13.4-stable+timestamp.2015.12.26.04.59.39</div></td></tr><tr><td style="font-weight:bold;vertical-align:top;">wsgi.errors</td><td style="vertical-align:top;">:</td><td><div>&lt;open file &#x27;&lt;stderr&gt;&#x27;, mode &#x27;w&#x27; at 0x10165c1e0&gt;</div></td></tr><tr><td style="font-weight:bold;vertical-align:top;">wsgi.file_wrapper</td><td style="vertical-align:top;">:</td><td><div>&lt;class wsgiref.util.FileWrapper at 0x1025f0808&gt;</div></td></tr><tr><td style="font-weight:bold;vertical-align:top;">wsgi.input</td><td style="vertical-align:top;">:</td><td><div>&lt;socket._fileobject object at 0x108cd5750&gt;</div></td></tr><tr><td style="font-weight:bold;vertical-align:top;">wsgi.multiprocess</td><td style="vertical-align:top;">:</td><td><div>False</div></td></tr><tr><td style="font-weight:bold;vertical-align:top;">wsgi.multithread</td><td style="vertical-align:top;">:</td><td><div>True</div></td></tr><tr><td style="font-weight:bold;vertical-align:top;">wsgi.run_once</td><td style="vertical-align:top;">:</td><td><div>False</div></td></tr><tr><td style="font-weight:bold;vertical-align:top;">wsgi.url_scheme</td><td style="vertical-align:top;">:</td><td><div>http</div></td></tr><tr><td style="font-weight:bold;vertical-align:top;">wsgi.version</td><td style="vertical-align:top;">:</td><td><div><table><tr><td><div>1</div></td></tr><tr><td><div>0</div></td></tr></table></div></td></tr><tr><td style="font-weight:bold;vertical-align:top;">wsgi_errors</td><td style="vertical-align:top;">:</td><td><div>&lt;open file &#x27;&lt;stderr&gt;&#x27;, mode &#x27;w&#x27; at 0x10165c1e0&gt;</div></td></tr><tr><td style="font-weight:bold;vertical-align:top;">wsgi_file_wrapper</td><td style="vertical-align:top;">:</td><td><div>&lt;class wsgiref.util.FileWrapper at 0x1025f0808&gt;</div></td></tr><tr><td style="font-weight:bold;vertical-align:top;">wsgi_input</td><td style="vertical-align:top;">:</td><td><div>&lt;socket._fileobject object at 0x108cd5750&gt;</div></td></tr><tr><td style="font-weight:bold;vertical-align:top;">wsgi_multiprocess</td><td style="vertical-align:top;">:</td><td><div>False</div></td></tr><tr><td style="font-weight:bold;vertical-align:top;">wsgi_multithread</td><td style="vertical-align:top;">:</td><td><div>True</div></td></tr><tr><td style="font-weight:bold;vertical-align:top;">wsgi_run_once</td><td style="vertical-align:top;">:</td><td><div>False</div></td></tr><tr><td style="font-weight:bold;vertical-align:top;">wsgi_url_scheme</td><td style="vertical-align:top;">:</td><td><div>http</div></td></tr><tr><td style="font-weight:bold;vertical-align:top;">wsgi_version</td><td style="vertical-align:top;">:</td><td><div><table><tr><td><div>1</div></td></tr><tr><td><div>0</div></td></tr></table></div></td></tr></table></div></td></tr><tr><td style="font-weight:bold;vertical-align:top;">extension</td><td style="vertical-align:top;">:</td><td><div>html</div></td></tr><tr><td style="font-weight:bold;vertical-align:top;">folder</td><td style="vertical-align:top;">:</td><td><div>/Users/hairongwu/Desktop/web2py/applications/SlugHero/</div></td></tr><tr><td style="font-weight:bold;vertical-align:top;">function</td><td style="vertical-align:top;">:</td><td><div>generalForum</div></td></tr><tr><td style="font-weight:bold;vertical-align:top;">global_settings</td><td style="vertical-align:top;">:</td><td><div><table><tr><td style="font-weight:bold;vertical-align:top;">app_folders</td><td style="vertical-align:top;">:</td><td><div>set([&#x27;/Users/hairongwu/Desktop/web2py/applications/welcome/&#x27;, &#x27;/Users/hairongwu/Desktop/web2py/applications/admin/&#x27;, &#x27;/Users/hairongwu/Desktop/web2py/applications/salelist/&#x27;, &#x27;/Users/hairongwu/Desktop/web2py/applications/SlugHero/&#x27;])</div></td></tr><tr><td style="font-weight:bold;vertical-align:top;">applications_parent</td><td style="vertical-align:top;">:</td><td><div>/Users/hairongwu/Desktop/web2py</div></td></tr><tr><td style="font-weight:bold;vertical-align:top;">cmd_args</td><td style="vertical-align:top;">:</td><td><div><table></table></div></td></tr><tr><td style="font-weight:bold;vertical-align:top;">cmd_options</td><td style="vertical-align:top;">:</td><td><div>&lt;Values at 0x102e4c368: {&#x27;verbose&#x27;: False, &#x27;ip&#x27;: &#x27;127.0.0.1&#x27;, &#x27;debuglevel&#x27;: 30, &#x27;with_scheduler&#x27;: False, &#x27;ips&#x27;: [&#x27;169.233.146.166&#x27;], &#x27;shutdown_timeout&#x27;: 5, &#x27;taskbar&#x27;: False, &#x27;with_coverage&#x27;: False, &#x27;scheduler_groups&#x27;: None, &#x27;port&#x27;: 8000, &#x27;maxthreads&#x27;: None, &#x27;softcron&#x27;: False, &#x27;server_name&#x27;: &#x27;dhcp-169-233-146-166.cruznet.ucsc.edu&#x27;, &#x27;bpython&#x27;: False, &#x27;nogui&#x27;: False, &#x27;pid_filename&#x27;: &#x27;httpserver.pid&#x27;, &#x27;print_errors&#x27;: False, &#x27;extcron&#x27;: False, &#x27;runcron&#x27;: False, &#x27;run_system_tests&#x27;: False, &#x27;test&#x27;: None, &#x27;folder&#x27;: &#x27;/Users/hairongwu/Desktop/web2py&#x27;, &#x27;config&#x27;: &#x27;&#x27;, &#x27;minthreads&#x27;: None, &#x27;shell&#x27;: None, &#x27;run&#x27;: &#x27;&#x27;, &#x27;log_filename&#x27;: &#x27;httpserver.log&#x27;, &#x27;profiler_dir&#x27;: None, &#x27;args&#x27;: [&#x27;&#x27;], &#x27;socket_timeout&#x27;: 5, &#x27;ssl_ca_certificate&#x27;: None, &#x27;scheduler&#x27;: None, &#x27;interfaces&#x27;: None, &#x27;ssl_private_key&#x27;: &#x27;&#x27;, &#x27;gae&#x27;: None, &#x27;password&#x27;: &#x27;&lt;ask&gt;&#x27;, &#x27;request_queue_size&#x27;: 5, &#x27;ssl_certificate&#x27;: &#x27;&#x27;, &#x27;cronjob&#x27;: False, &#x27;numthreads&#x27;: None, &#x27;quiet&#x27;: False, &#x27;import_models&#x27;: False, &#x27;timeout&#x27;: 10, &#x27;plain&#x27;: False, &#x27;nobanner&#x27;: False}&gt;</div></td></tr><tr><td style="font-weight:bold;vertical-align:top;">db_sessions</td><td style="vertical-align:top;">:</td><td><div>set([])</div></td></tr><tr><td style="font-weight:bold;vertical-align:top;">debugging</td><td style="vertical-align:top;">:</td><td><div>True</div></td></tr><tr><td style="font-weight:bold;vertical-align:top;">gluon_parent</td><td style="vertical-align:top;">:</td><td><div>/Users/hairongwu/Desktop/web2py</div></td></tr><tr><td style="font-weight:bold;vertical-align:top;">is_jython</td><td style="vertical-align:top;">:</td><td><div>False</div></td></tr><tr><td style="font-weight:bold;vertical-align:top;">is_pypy</td><td style="vertical-align:top;">:</td><td><div>False</div></td></tr><tr><td style="font-weight:bold;vertical-align:top;">is_source</td><td style="vertical-align:top;">:</td><td><div>True</div></td></tr><tr><td style="font-weight:bold;vertical-align:top;">local_hosts</td><td style="vertical-align:top;">:</td><td><div><table><tr><td><div>169.233.146.166</div></td></tr><tr><td><div>::1</div></td></tr><tr><td><div>::ffff:127.0.0.1</div></td></tr><tr><td><div>127.0.0.1</div></td></tr><tr><td><div>dhcp-169-233-146-166.cruznet.ucsc.edu</div></td></tr></table></div></td></tr><tr><td style="font-weight:bold;vertical-align:top;">web2py_version</td><td style="vertical-align:top;">:</td><td><div>2.13.4-stable+timestamp.2015.12.26.04.59.39</div></td></tr></table></div></td></tr><tr><td style="font-weight:bold;vertical-align:top;">is_https</td><td style="vertical-align:top;">:</td><td><div>False</div></td></tr><tr><td style="font-weight:bold;vertical-align:top;">is_local</td><td style="vertical-align:top;">:</td><td><div>True</div></td></tr><tr><td style="font-weight:bold;vertical-align:top;">is_restful</td><td style="vertical-align:top;">:</td><td><div>False</div></td></tr><tr><td style="font-weight:bold;vertical-align:top;">is_scheduler</td><td style="vertical-align:top;">:</td><td><div>False</div></td></tr><tr><td style="font-weight:bold;vertical-align:top;">is_shell</td><td style="vertical-align:top;">:</td><td><div>False</div></td></tr><tr><td style="font-weight:bold;vertical-align:top;">now</td><td style="vertical-align:top;">:</td><td><div>datetime.datetime(2016, 2, 26, 16, 5, 36, 508811)</div></td></tr><tr><td style="font-weight:bold;vertical-align:top;">raw_args</td><td style="vertical-align:top;">:</td><td><div></div></td></tr><tr><td style="font-weight:bold;vertical-align:top;">raw_extension</td><td style="vertical-align:top;">:</td><td><div>None</div></td></tr><tr><td style="font-weight:bold;vertical-align:top;">url</td><td style="vertical-align:top;">:</td><td><div>/SlugHero/forum/generalForum</div></td></tr><tr><td style="font-weight:bold;vertical-align:top;">utcnow</td><td style="vertical-align:top;">:</td><td><div>datetime.datetime(2016, 2, 27, 0, 5, 36, 508821)</div></td></tr><tr><td style="font-weight:bold;vertical-align:top;">wsgi</td><td style="vertical-align:top;">:</td><td><div>&lt;gluon.main.LazyWSGI object at 0x108df2510&gt;</div></td></tr></table></div>'
tRp58
sS'frames'
p59
(lp60
(dp61
S'file'
p62
S'/Users/hairongwu/Desktop/web2py/gluon/restricted.py'
p63
sS'dump'
p64
(dp65
S'environment'
p66
S"{'A': <class 'gluon.html.A'>, 'ANY_OF': <class 'gluon.validators.ANY_OF'>, 'ASSIGNJS': <function ASSIGNJS>, 'AppConfig': <function AppConfig>, 'Auth': <class 'gluon.tools.Auth'>, 'B': <class 'gluon.html.B'>, 'BEAUTIFY': <class 'gluon.html.BEAUTIFY'>, 'BODY': <class 'gluon.html.BODY'>, 'BR': <class 'gluon.html.BR'>, 'BUTTON': <class 'gluon.html.BUTTON'>, ...}"
p67
sS'ccode'
p68
S'<code object <module> at 0x108f6d4b0, file "/Use.../SlugHero/views/forum/generalForum.html", line 1>'
p69
ssS'lnum'
p70
I227
sS'lines'
p71
(dp72
I224
S'            ccode = code'
p73
sI225
S'        else:'
p74
sI226
S'            ccode = compile2(code, layer)'
p75
sI227
S'        exec ccode in environment'
p76
sI228
S'    except HTTP:'
p77
sI229
S'        raise'
p78
sI230
S'    except RestrictedError:'
p79
sI231
S'        # do not encapsulate (obfuscate) the original RestrictedError'
p80
sI222
S'    try:'
p81
sI223
S'        if isinstance(code, types.CodeType):'
p82
ssS'call'
p83
S'(code=\'response.write(\\\'<!DOCTYPE html>\\\\n<!--[if (gt IE ..."></script>\\\\n  </body>\\\\n</html>\\\\n\\\', escape=False)\', environment={\'A\': <class \'gluon.html.A\'>, \'ANY_OF\': <class \'gluon.validators.ANY_OF\'>, \'ASSIGNJS\': <function ASSIGNJS>, \'AppConfig\': <function AppConfig>, \'Auth\': <class \'gluon.tools.Auth\'>, \'B\': <class \'gluon.html.B\'>, \'BEAUTIFY\': <class \'gluon.html.BEAUTIFY\'>, \'BODY\': <class \'gluon.html.BODY\'>, \'BR\': <class \'gluon.html.BR\'>, \'BUTTON\': <class \'gluon.html.BUTTON\'>, ...}, layer=\'/Users/hairongwu/Desktop/web2py/applications/SlugHero/views/forum/generalForum.html\')'
p84
sS'func'
p85
S'restricted'
p86
sa(dp87
g62
S'/Users/hairongwu/Desktop/web2py/applications/SlugHero/views/forum/generalForum.html'
p88
sg64
(dp89
S'A'
S"<class 'gluon.html.A'>"
p90
sS'_href'
p91
S'undefined'
p92
sS'URL'
p93
S'<function URL>'
p94
sS'showNum'
p95
g92
sS'args'
p96
g92
sS'_class'
p97
g92
ssg70
I115
sg71
(dp98
I106
S'            response.write(\'\\n            <div style = "text-align:center;color:#e98c3a">---</div>\\n          \', escape=False)'
p99
sI107
S'            pass'
p100
sI108
S'        response.write(\'\\n        </td>\\n        <td><div style = "text-align:center;color: #e98c3a">\\n          \', escape=False)'
p101
sI109
S'        response.write(len(numOfReplies))'
p102
sI110
S"        response.write('</div>\\n        </td>\\n      </tr>\\n    ', escape=False)"
p103
sI111
S'    else:'
p104
sI112
S'        response.write(\'\\n      <tr bgcolor="#eff5d1" style="font-family:verdana;font-size:100%;color:black;height:40px">\\n        <td>\\n          &nbsp;&nbsp;\', escape=False)'
p105
sI113
S"        response.write((A(forum.title, _href=URL('showEachForum', args=forum.id))))"
p106
sI114
S'        response.write(\'\\n        </td>\\n        <td><div style = "text-align:center;color:#e98c3a">\\n          \', escape=False)'
p107
sI115
S"        response.write((student.first_name+' '+student.last_name))"
p108
sI116
S"        response.write('</div>\\n        </td>\\n        <td>\\n        ', escape=False)"
p109
sI117
S'        if (len(lastPost) !=0):'
p110
sI118
S'            response.write(\'\\n          <div style = "text-align:center;color:#e98c3a">\\n          \', escape=False)'
p111
sI119
S"            response.write((lastPostStudent.first_name+' '+lastPostStudent.last_name))"
p112
sI120
S"            response.write('</div>\\n        ', escape=False)"
p113
sI121
S'        else:'
p114
sI122
S'            response.write(\'\\n          <div style = "text-align:center;color:#e98c3a">---</div>\\n        \', escape=False)'
p115
sI123
S'            pass'
p116
sI124
S'        response.write(\'\\n        </td>\\n        <td><div style = "text-align:center;color: #e98c3a">\\n          \', escape=False)'
p117
sI125
S'        response.write(len(numOfReplies))'
p118
ssg83
S'()'
p119
sg85
S'<module>'
p120
sasS'pyver'
p121
S'Python 2.7.10: /usr/bin/python (prefix: /System/Library/Frameworks/Python.framework/Versions/2.7)'
p122
sS'session'
p123
g57
(S's!\x0e\x00\x00<div><table><tr><td style="font-weight:bold;vertical-align:top;">args</td><td style="vertical-align:top;">:</td><td><div>None</div></td></tr><tr><td style="font-weight:bold;vertical-align:top;">auth</td><td style="vertical-align:top;">:</td><td><div><table><tr><td style="font-weight:bold;vertical-align:top;">expiration</td><td style="vertical-align:top;">:</td><td><div>2592000</div></td></tr><tr><td style="font-weight:bold;vertical-align:top;">hmac_key</td><td style="vertical-align:top;">:</td><td><div>dd1bf9df-e9d0-4885-9f78-ed875294ea75</div></td></tr><tr><td style="font-weight:bold;vertical-align:top;">last_visit</td><td style="vertical-align:top;">:</td><td><div>datetime.datetime(2016, 2, 26, 15, 54, 4, 791332)</div></td></tr><tr><td style="font-weight:bold;vertical-align:top;">remember_me</td><td style="vertical-align:top;">:</td><td><div>True</div></td></tr><tr><td style="font-weight:bold;vertical-align:top;">user</td><td style="vertical-align:top;">:</td><td><div><table><tr><td style="font-weight:bold;vertical-align:top;">email</td><td style="vertical-align:top;">:</td><td><div>helenhelen@gmail.com</div></td></tr><tr><td style="font-weight:bold;vertical-align:top;">first_name</td><td style="vertical-align:top;">:</td><td><div>helen</div></td></tr><tr><td style="font-weight:bold;vertical-align:top;">id</td><td style="vertical-align:top;">:</td><td><div>6L</div></td></tr><tr><td style="font-weight:bold;vertical-align:top;">image</td><td style="vertical-align:top;">:</td><td><div></div></td></tr><tr><td style="font-weight:bold;vertical-align:top;">last_name</td><td style="vertical-align:top;">:</td><td><div>helen</div></td></tr><tr><td style="font-weight:bold;vertical-align:top;">major</td><td style="vertical-align:top;">:</td><td><div>cmps</div></td></tr><tr><td style="font-weight:bold;vertical-align:top;">minor</td><td style="vertical-align:top;">:</td><td><div></div></td></tr><tr><td style="font-weight:bold;vertical-align:top;">registration_id</td><td style="vertical-align:top;">:</td><td><div></div></td></tr><tr><td style="font-weight:bold;vertical-align:top;">registration_key</td><td style="vertical-align:top;">:</td><td><div></div></td></tr><tr><td style="font-weight:bold;vertical-align:top;">reset_password_key</td><td style="vertical-align:top;">:</td><td><div></div></td></tr><tr><td style="font-weight:bold;vertical-align:top;">second_major</td><td style="vertical-align:top;">:</td><td><div></div></td></tr><tr><td style="font-weight:bold;vertical-align:top;">show_email</td><td style="vertical-align:top;">:</td><td><div>True</div></td></tr><tr><td style="font-weight:bold;vertical-align:top;">term</td><td style="vertical-align:top;">:</td><td><div>Senior</div></td></tr></table></div></td></tr><tr><td style="font-weight:bold;vertical-align:top;">user_groups</td><td style="vertical-align:top;">:</td><td><div><table></table></div></td></tr></table></div></td></tr><tr><td style="font-weight:bold;vertical-align:top;">controller</td><td style="vertical-align:top;">:</td><td><div>None</div></td></tr><tr><td style="font-weight:bold;vertical-align:top;">flash</td><td style="vertical-align:top;">:</td><td><div>None</div></td></tr><tr><td style="font-weight:bold;vertical-align:top;">function</td><td style="vertical-align:top;">:</td><td><div>None</div></td></tr><tr><td style="font-weight:bold;vertical-align:top;">last_orderby</td><td style="vertical-align:top;">:</td><td><div>None</div></td></tr><tr><td style="font-weight:bold;vertical-align:top;">last_query</td><td style="vertical-align:top;">:</td><td><div>db.post.id&gt;0</div></td></tr></table></div>'
tRp124
sS'etype'
p125
S"<type 'exceptions.AttributeError'>"
p126
sS'date'
p127
S'Fri Feb 26 16:05:36 2016'
p128
sS'response'
p129
g57
(S's6"\x00\x00<div><table><tr><td style="font-weight:bold;vertical-align:top;">body</td><td style="vertical-align:top;">:</td><td><div>&lt;cStringIO.StringO object at 0x109023068&gt;</div></td></tr><tr><td style="font-weight:bold;vertical-align:top;">cookies</td><td style="vertical-align:top;">:</td><td><div><table><tr><td style="font-weight:bold;vertical-align:top;">session_id_slughero</td><td style="vertical-align:top;">:</td><td><div>127.0.0.1-4ebef065-a3b9-42e2-981d-565697235a01<table><tr><td style="font-weight:bold;vertical-align:top;">comment</td><td style="vertical-align:top;">:</td><td><div></div></td></tr><tr><td style="font-weight:bold;vertical-align:top;">domain</td><td style="vertical-align:top;">:</td><td><div></div></td></tr><tr><td style="font-weight:bold;vertical-align:top;">expires</td><td style="vertical-align:top;">:</td><td><div></div></td></tr><tr><td style="font-weight:bold;vertical-align:top;">httponly</td><td style="vertical-align:top;">:</td><td><div></div></td></tr><tr><td style="font-weight:bold;vertical-align:top;">max-age</td><td style="vertical-align:top;">:</td><td><div></div></td></tr><tr><td style="font-weight:bold;vertical-align:top;">path</td><td style="vertical-align:top;">:</td><td><div>/</div></td></tr><tr><td style="font-weight:bold;vertical-align:top;">secure</td><td style="vertical-align:top;">:</td><td><div></div></td></tr><tr><td style="font-weight:bold;vertical-align:top;">version</td><td style="vertical-align:top;">:</td><td><div></div></td></tr></table></div></td></tr></table></div></td></tr><tr><td style="font-weight:bold;vertical-align:top;">delimiters</td><td style="vertical-align:top;">:</td><td><div><table><tr><td><div>{{</div></td></tr><tr><td><div>}}</div></td></tr></table></div></td></tr><tr><td style="font-weight:bold;vertical-align:top;">files</td><td style="vertical-align:top;">:</td><td><div><table><tr><td><div>/SlugHero/static/js/jquery.js</div></td></tr><tr><td><div>/SlugHero/static/css/calendar.css</div></td></tr><tr><td><div>/SlugHero/static/js/calendar.js</div></td></tr><tr><td><div>/SlugHero/static/js/web2py.js</div></td></tr></table></div></td></tr><tr><td style="font-weight:bold;vertical-align:top;">flash</td><td style="vertical-align:top;">:</td><td><div></div></td></tr><tr><td style="font-weight:bold;vertical-align:top;">form_label_separator</td><td style="vertical-align:top;">:</td><td><div></div></td></tr><tr><td style="font-weight:bold;vertical-align:top;">formstyle</td><td style="vertical-align:top;">:</td><td><div>bootstrap3_inline</div></td></tr><tr><td style="font-weight:bold;vertical-align:top;">generic_patterns</td><td style="vertical-align:top;">:</td><td><div><table><tr><td><div>*</div></td></tr></table></div></td></tr><tr><td style="font-weight:bold;vertical-align:top;">google_analytics_id</td><td style="vertical-align:top;">:</td><td><div>None</div></td></tr><tr><td style="font-weight:bold;vertical-align:top;">headers</td><td style="vertical-align:top;">:</td><td><div><table><tr><td style="font-weight:bold;vertical-align:top;">X-Powered-By</td><td style="vertical-align:top;">:</td><td><div>web2py</div></td></tr></table></div></td></tr><tr><td style="font-weight:bold;vertical-align:top;">logo</td><td style="vertical-align:top;">:</td><td><div><a class="navbar-brand" href="http://www.web2py.com/" id="web2py-logo"><b>Slug Hero</b>&trade;&nbsp;</a></div></td></tr><tr><td style="font-weight:bold;vertical-align:top;">menu</td><td style="vertical-align:top;">:</td><td><div><table><tr><td><div><table><tr><td><div>Home</div></td></tr><tr><td><div>False</div></td></tr><tr><td><div>/SlugHero/default/index</div></td></tr><tr><td><div><table></table></div></td></tr></table></div></td></tr><tr><td><div><table><tr><td><div>Department</div></td></tr><tr><td><div>False</div></td></tr><tr><td><div>/SlugHero/default/showDepartment</div></td></tr></table></div></td></tr><tr><td><div><table><tr><td><div>Professor</div></td></tr><tr><td><div>False</div></td></tr><tr><td><div>/SlugHero/professor/showProfessor</div></td></tr></table></div></td></tr><tr><td><div><table><tr><td><div>Textbook Exchange</div></td></tr><tr><td><div>False</div></td></tr><tr><td><div>/SlugHero/forum/bookExchange</div></td></tr></table></div></td></tr><tr><td><div><table><tr><td><div>Forum</div></td></tr><tr><td><div>False</div></td></tr><tr><td><div>/SlugHero/forum/generalForum</div></td></tr></table></div></td></tr><tr><td><div><table><tr><td><div>my Profile</div></td></tr><tr><td><div>False</div></td></tr><tr><td><div>/SlugHero/userProfile/showProfile/6?fromMenu=True</div></td></tr></table></div></td></tr></table></div></td></tr><tr><td style="font-weight:bold;vertical-align:top;">meta</td><td style="vertical-align:top;">:</td><td><div><table><tr><td style="font-weight:bold;vertical-align:top;">author</td><td style="vertical-align:top;">:</td><td><div>Your Name &lt;you@example.com&gt;</div></td></tr><tr><td style="font-weight:bold;vertical-align:top;">description</td><td style="vertical-align:top;">:</td><td><div>a cool new app</div></td></tr><tr><td style="font-weight:bold;vertical-align:top;">generator</td><td style="vertical-align:top;">:</td><td><div>Web2py Web Framework</div></td></tr><tr><td style="font-weight:bold;vertical-align:top;">keywords</td><td style="vertical-align:top;">:</td><td><div>web2py, python, framework</div></td></tr></table></div></td></tr><tr><td style="font-weight:bold;vertical-align:top;">models_to_run</td><td style="vertical-align:top;">:</td><td><div><table><tr><td><div>^\\w+\\.py$</div></td></tr><tr><td><div>^forum/\\w+\\.py$</div></td></tr><tr><td><div>^forum/generalForum/\\w+\\.py$</div></td></tr></table></div></td></tr><tr><td style="font-weight:bold;vertical-align:top;">postprocessing</td><td style="vertical-align:top;">:</td><td><div><table></table></div></td></tr><tr><td style="font-weight:bold;vertical-align:top;">session_client</td><td style="vertical-align:top;">:</td><td><div>127.0.0.1</div></td></tr><tr><td style="font-weight:bold;vertical-align:top;">session_cookie_compression_level</td><td style="vertical-align:top;">:</td><td><div>None</div></td></tr><tr><td style="font-weight:bold;vertical-align:top;">session_cookie_expires</td><td style="vertical-align:top;">:</td><td><div>2592000</div></td></tr><tr><td style="font-weight:bold;vertical-align:top;">session_cookie_key</td><td style="vertical-align:top;">:</td><td><div>None</div></td></tr><tr><td style="font-weight:bold;vertical-align:top;">session_data_name</td><td style="vertical-align:top;">:</td><td><div>session_data_slughero</div></td></tr><tr><td style="font-weight:bold;vertical-align:top;">session_file</td><td style="vertical-align:top;">:</td><td><div>&lt;open file &#x27;/Users/hairongwu/Desktop/web2py/applications/SlugHero/sessions/0de/1b9/127.0.0.1-4ebef065-a3b9-42e2-981d-565697235a01&#x27;, mode &#x27;rb+&#x27; at 0x109743a50&gt;</div></td></tr><tr><td style="font-weight:bold;vertical-align:top;">session_filename</td><td style="vertical-align:top;">:</td><td><div>/Users/hairongwu/Desktop/web2py/applications/SlugHero/sessions/127.0.0.1-4ebef065-a3b9-42e2-981d-565697235a01</div></td></tr><tr><td style="font-weight:bold;vertical-align:top;">session_hash</td><td style="vertical-align:top;">:</td><td><div>7430957c617571b01acf193a2f807bc3</div></td></tr><tr><td style="font-weight:bold;vertical-align:top;">session_id</td><td style="vertical-align:top;">:</td><td><div>127.0.0.1-4ebef065-a3b9-42e2-981d-565697235a01</div></td></tr><tr><td style="font-weight:bold;vertical-align:top;">session_id_name</td><td style="vertical-align:top;">:</td><td><div>session_id_slughero</div></td></tr><tr><td style="font-weight:bold;vertical-align:top;">session_locked</td><td style="vertical-align:top;">:</td><td><div>True</div></td></tr><tr><td style="font-weight:bold;vertical-align:top;">session_masterapp</td><td style="vertical-align:top;">:</td><td><div>SlugHero</div></td></tr><tr><td style="font-weight:bold;vertical-align:top;">session_new</td><td style="vertical-align:top;">:</td><td><div>False</div></td></tr><tr><td style="font-weight:bold;vertical-align:top;">session_storage_type</td><td style="vertical-align:top;">:</td><td><div>file</div></td></tr><tr><td style="font-weight:bold;vertical-align:top;">status</td><td style="vertical-align:top;">:</td><td><div>200</div></td></tr><tr><td style="font-weight:bold;vertical-align:top;">subtitle</td><td style="vertical-align:top;">:</td><td><div></div></td></tr><tr><td style="font-weight:bold;vertical-align:top;">title</td><td style="vertical-align:top;">:</td><td><div>Slughero</div></td></tr><tr><td style="font-weight:bold;vertical-align:top;">view</td><td style="vertical-align:top;">:</td><td><div>forum/generalForum.html</div></td></tr></table></div>'
tRp130
sS'locals'
p131
(dp132
S'Service'
p133
S"<class 'gluon.tools.Service'>"
p134
sS'IFRAME'
p135
S"<class 'gluon.html.IFRAME'>"
p136
sS'OBJECT'
p137
S"<class 'gluon.html.OBJECT'>"
p138
sS'SQLDB'
p139
S"<class 'pydal.base.DAL'>"
p140
sg123
S"<Storage {'function': None, 'last_query': 'db.po...1430c', 'dcdfce37-5a53-4d9d-849a-a9f7777d19b9']}>"
p141
sS'LINK'
p142
S"<class 'gluon.html.LINK'>"
p143
sS'numOfReplies'
p144
S'<Rows (0)>'
p145
sS'BR'
p146
S"<class 'gluon.html.BR'>"
p147
sS'local_import'
p148
S'<function <lambda>>'
p149
sS'OPTGROUP'
p150
S"<class 'gluon.html.OPTGROUP'>"
p151
sS'__package__'
p152
S'None'
p153
sS'PRE'
p154
S"<class 'gluon.html.PRE'>"
p155
sS'IS_INT_IN_RANGE'
p156
S"<class 'gluon.validators.IS_INT_IN_RANGE'>"
p157
sS'left_sidebar_enabled'
p158
S'False'
p159
sS'IS_LOWER'
p160
S"<class 'gluon.validators.IS_LOWER'>"
p161
sS'IS_STRONG'
p162
S"<class 'gluon.validators.IS_STRONG'>"
p163
sS'cache'
p164
S'<gluon.cache.Cache object>'
p165
sS'IS_IN_DB'
p166
S"<class 'gluon.validators.IS_IN_DB'>"
p167
sS'TAG'
p168
S'<gluon.html.__TAG__ object>'
p169
sS'SQLField'
p170
S"<class 'pydal.objects.Field'>"
p171
sS'mail'
p172
S'<gluon.tools.Mail object>'
p173
sS'BODY'
p174
S"<class 'gluon.html.BODY'>"
p175
sS'IS_DATE_IN_RANGE'
p176
S"<class 'gluon.validators.IS_DATE_IN_RANGE'>"
p177
sS'string'
p178
S"<module 'string' from '/System/Library/Framework...framework/Versions/2.7/lib/python2.7/string.pyc'>"
p179
sS'URL'
p180
S'<function URL>'
p181
sS'__file__'
p182
S"'/Users/hairongwu/Desktop/web2py/applications/SlugHero/views/forum/generalForum.html'"
p183
sS'db'
p184
S'<DAL uri="sqlite://storage.sqlite">'
p185
sS'auth'
p186
S'<gluon.tools.Auth object>'
p187
sS'IS_EMPTY_OR'
p188
S"<class 'gluon.validators.IS_EMPTY_OR'>"
p189
sS'P'
S"<class 'gluon.html.P'>"
p190
sS'TFOOT'
p191
S"<class 'gluon.html.TFOOT'>"
p192
sS'lastPost'
p193
S'<Rows (0)>'
p194
sS'XHTML'
p195
S"<class 'gluon.html.XHTML'>"
p196
sS'ON'
p197
S'True'
p198
sS'OL'
p199
S"<class 'gluon.html.OL'>"
p200
sS'TEXTAREA'
p201
S"<class 'gluon.html.TEXTAREA'>"
p202
sS'MENU'
p203
S"<class 'gluon.html.MENU'>"
p204
sS'IS_IMAGE'
p205
S"<class 'gluon.validators.IS_IMAGE'>"
p206
sS'quarter'
p207
S"['fall', 'winter', 'spring', 'summer']"
p208
sS'lastPostStudent'
p209
S"<Row {'courseTopicReply': <Set (courseTopicReply...3)>, 'ucscClass': <Set (ucscClass.user_id = 3)>}>"
p210
sS'page'
p211
S'0'
sS'gradeRange'
p212
S"['A+', 'A', 'A-', 'B+', 'B', 'B-', 'C+', 'C', 'C-', 'D', 'F', 'P', 'NP']"
p213
sS'EM'
p214
S"<class 'gluon.html.EM'>"
p215
sS'CODE'
p216
S"<class 'gluon.html.CODE'>"
p217
sS'HTTP'
p218
S"<class 'gluon.http.HTTP'>"
p219
sS'HR'
p220
S"<class 'gluon.html.HR'>"
p221
sS'IS_DATETIME'
p222
S"<class 'gluon.validators.IS_DATETIME'>"
p223
sS'STYLE'
p224
S"<class 'gluon.html.STYLE'>"
p225
sS'LABEL'
p226
S"<class 'gluon.html.LABEL'>"
p227
sS'CLEANUP'
p228
S"<class 'gluon.validators.CLEANUP'>"
p229
sS'plugins'
p230
S'<gluon.tools.PluginManager object>'
p231
sS'SELECT'
p232
S"<class 'gluon.html.SELECT'>"
p233
sS'CENTER'
p234
S"<class 'gluon.html.CENTER'>"
p235
sS'Auth'
p236
S"<class 'gluon.tools.Auth'>"
p237
sS'COL'
p238
S"<class 'gluon.html.COL'>"
p239
sS'__builtins__'
p240
S"{'ArithmeticError': <type 'exceptions.ArithmeticError'>, 'AssertionError': <type 'exceptions.AssertionError'>, 'AttributeError': <type 'exceptions.AttributeError'>, 'BaseException': <type 'exceptions.BaseException'>, 'BufferError': <type 'exceptions.BufferError'>, 'BytesWarning': <type 'exceptions.BytesWarning'>, 'DeprecationWarning': <type 'exceptions.DeprecationWarning'>, 'EOFError': <type 'exceptions.EOFError'>, 'Ellipsis': Ellipsis, 'EnvironmentError': <type 'exceptions.EnvironmentError'>, ...}"
p241
sS'HTML'
p242
S"<class 'gluon.html.HTML'>"
p243
sS'SQLFORM'
p244
S"<class 'gluon.sqlhtml.SQLFORM'>"
p245
sS'math'
p246
S"<module 'math' from '/System/Library/Frameworks/.../Versions/2.7/lib/python2.7/lib-dynload/math.so'>"
p247
sS'LOAD'
p248
S'<function LOAD>'
p249
sS'redirect'
p250
S'<function redirect>'
p251
sS'FIELDSET'
p252
S"<class 'gluon.html.FIELDSET'>"
p253
sS'IS_EQUAL_TO'
p254
S"<class 'gluon.validators.IS_EQUAL_TO'>"
p255
sS'embed64'
p256
S'<function embed64>'
p257
sS'IS_LIST_OF'
p258
S"<class 'gluon.validators.IS_LIST_OF'>"
p259
sS'INPUT'
p260
S"<class 'gluon.html.INPUT'>"
p261
sS'EMBED'
p262
S"<class 'gluon.html.EMBED'>"
p263
sS'FORM'
p264
S"<class 'gluon.html.FORM'>"
p265
sS'myconf'
p266
S"{'forms': {'formstyle': 'bootstrap3_inline', 'se...'you@gmail.com', 'server': 'smtp.gmail.com:587'}}"
p267
sS'forum'
p268
S"<Row {'body': 'today is fool day!', 'status': Fa... 'id': 5L, 'forumSection': 'forum', 'image': ''}>"
p269
sS'H2'
p270
S"<class 'gluon.html.H2'>"
p271
sS'H3'
p272
S"<class 'gluon.html.H3'>"
p273
sS'AppConfig'
p274
S'<function AppConfig>'
p275
sS'H1'
p276
S"<class 'gluon.html.H1'>"
p277
sS'H6'
p278
S"<class 'gluon.html.H6'>"
p279
sS'H4'
p280
S"<class 'gluon.html.H4'>"
p281
sS'H5'
p282
S"<class 'gluon.html.H5'>"
p283
sS'UL'
p284
S"<class 'gluon.html.UL'>"
p285
sS'IS_UPPER'
p286
S"<class 'gluon.validators.IS_UPPER'>"
p287
sS'xmlescape'
p288
S'<function xmlescape>'
p289
sS'IS_TIME'
p290
S"<class 'gluon.validators.IS_TIME'>"
p291
sS'OPTION'
p292
S"<class 'gluon.html.OPTION'>"
p293
sS'TITLE'
p294
S"<class 'gluon.html.TITLE'>"
p295
sS'CRYPT'
p296
S"<class 'gluon.validators.CRYPT'>"
p297
sS'number'
p298
S'1'
sS'MARKMIN'
p299
S"<class 'gluon.html.MARKMIN'>"
p300
sS'__name__'
p301
S"'__restricted__'"
p302
sS'STRONG'
p303
S"<class 'gluon.html.STRONG'>"
p304
sS'forums'
p305
S'<Rows (7)>'
p306
sS'mc2'
p307
S"'col-md-6'"
p308
sS'mc1'
p309
S"'col-md-9'"
p310
sS'mc0'
p311
S"'col-md-12'"
p312
sS'service'
p313
S'<gluon.tools.Service object>'
p314
sS'SCRIPT'
p315
S"<class 'gluon.html.SCRIPT'>"
p316
sS'start'
p317
S'0'
sS'TABLE'
p318
S"<class 'gluon.html.TABLE'>"
p319
sS'IS_IPV4'
p320
S"<class 'gluon.validators.IS_IPV4'>"
p321
sS'IS_LENGTH'
p322
S"<class 'gluon.validators.IS_LENGTH'>"
p323
sS'IS_IPV6'
p324
S"<class 'gluon.validators.IS_IPV6'>"
p325
sS'XML'
p326
S"<class 'gluon.html.XML'>"
p327
sS'B'
S"<class 'gluon.html.B'>"
p328
sS'IMG'
p329
S"<class 'gluon.html.IMG'>"
p330
sS'SQLTABLE'
p331
S"<class 'gluon.sqlhtml.SQLTABLE'>"
p332
sS'IS_MATCH'
p333
S"<class 'gluon.validators.IS_MATCH'>"
p334
sS'IS_ALPHANUMERIC'
p335
S"<class 'gluon.validators.IS_ALPHANUMERIC'>"
p336
sS'count'
p337
S'4'
sS'SPAN'
p338
S"<class 'gluon.html.SPAN'>"
p339
sS'IS_JSON'
p340
S"<class 'gluon.validators.IS_JSON'>"
p341
sS'IS_IPADDRESS'
p342
S"<class 'gluon.validators.IS_IPADDRESS'>"
p343
sS'IS_SLUG'
p344
S"<class 'gluon.validators.IS_SLUG'>"
p345
sS'BEAUTIFY'
p346
S"<class 'gluon.html.BEAUTIFY'>"
p347
sS'META'
p348
S"<class 'gluon.html.META'>"
p349
sS'swithColor'
p350
S'4'
sS'BUTTON'
p351
S"<class 'gluon.html.BUTTON'>"
p352
sS'IS_DATE'
p353
S"<class 'gluon.validators.IS_DATE'>"
p354
sS'IS_EMAIL'
p355
S"<class 'gluon.validators.IS_EMAIL'>"
p356
sS'middle_column'
p357
S"'col-md-12'"
p358
sS'IS_NOT_EMPTY'
p359
S"<class 'gluon.validators.IS_NOT_EMPTY'>"
p360
sS'IS_FLOAT_IN_RANGE'
p361
S"<class 'gluon.validators.IS_FLOAT_IN_RANGE'>"
p362
sS'TBODY'
p363
S"<class 'gluon.html.TBODY'>"
p364
sS'CAT'
p365
S"<class 'gluon.html.CAT'>"
p366
sS'Field'
p367
S"<class 'pydal.objects.Field'>"
p368
sS'IS_LIST_OF_EMAILS'
p369
S"<class 'gluon.validators.IS_LIST_OF_EMAILS'>"
p370
sS'DIV'
p371
S"<class 'gluon.html.DIV'>"
p372
sS'LEGEND'
p373
S"<class 'gluon.html.LEGEND'>"
p374
sS'deslugify'
p375
S'<function deslugify>'
p376
sS'COLGROUP'
p377
S"<class 'gluon.html.COLGROUP'>"
p378
sS'DAL'
p379
S"<class 'pydal.base.DAL'>"
p380
sS'ASSIGNJS'
p381
S'<function ASSIGNJS>'
p382
sS'TR'
p383
S"<class 'gluon.html.TR'>"
p384
sS'LI'
p385
S"<class 'gluon.html.LI'>"
p386
sS'right_sidebar_enabled'
p387
g159
sS'TH'
p388
S"<class 'gluon.html.TH'>"
p389
sS'TD'
p390
S"<class 'gluon.html.TD'>"
p391
sS'PluginManager'
p392
S"<class 'gluon.tools.PluginManager'>"
p393
sS'IS_URL'
p394
S"<class 'gluon.validators.IS_URL'>"
p395
sS'A'
S"<class 'gluon.html.A'>"
p396
sS'HEAD'
p397
S"<class 'gluon.html.HEAD'>"
p398
sS'IS_DATETIME_IN_RANGE'
p399
S"<class 'gluon.validators.IS_DATETIME_IN_RANGE'>"
p400
sS'populate'
p401
S'<function populate>'
p402
sS'I'
S"<class 'gluon.html.I'>"
p403
sS'stop'
p404
S'50'
p405
sS'IS_NOT_IN_DB'
p406
S"<class 'gluon.validators.IS_NOT_IN_DB'>"
p407
sS'noteType'
p408
S"['exam', 'homework', 'class note', 'course material', 'solution', 'other']"
p409
sS'student'
p410
S'None'
p411
sS'lastStudent'
p412
S"<Row {'body': 'dsadsadf', 'forumCommReply': <Set...16, 2, 24, 22, 51, 55), 'post_id': 7L, 'id': 8L}>"
p413
sg129
S"<Storage {'body': <cStringIO.StringO object at 0...0x108dea488>, 'view': 'forum/generalForum.html'}>"
p414
sS'THEAD'
p415
S"<class 'gluon.html.THEAD'>"
p416
sS'ANY_OF'
p417
S"<class 'gluon.validators.ANY_OF'>"
p418
sS'IS_NULL_OR'
p419
S"<class 'gluon.validators.IS_EMPTY_OR'>"
p420
sg56
S"<Storage {'_vars': None, 'function': 'generalFor...airongwu/Desktop/web2py/applications/SlugHero/'}>"
p421
sS'IS_EXPR'
p422
S"<class 'gluon.validators.IS_EXPR'>"
p423
sS'T'
S'<gluon.languages.translator object>'
p424
sS'IS_IN_SET'
p425
S"<class 'gluon.validators.IS_IN_SET'>"
p426
sS'IS_UPLOAD_FILENAME'
p427
S"<class 'gluon.validators.IS_UPLOAD_FILENAME'>"
p428
sS'TT'
p429
S"<class 'gluon.html.TT'>"
p430
sS'IS_DECIMAL_IN_RANGE'
p431
S"<class 'gluon.validators.IS_DECIMAL_IN_RANGE'>"
p432
sssS'traceback'
p433
S'Traceback (most recent call last):\n  File "/Users/hairongwu/Desktop/web2py/gluon/restricted.py", line 227, in restricted\n    exec ccode in environment\n  File "/Users/hairongwu/Desktop/web2py/applications/SlugHero/views/forum/generalForum.html", line 115, in <module>\n    {{=A(showNum+1,_class="btn btn-link", _href=(URL(args=(showNum))))}}\nAttributeError: \'NoneType\' object has no attribute \'first_name\'\n'
p434
s.