(dp1
S'output'
p2
S"<type 'exceptions.SyntaxError'> Object exists and cannot be redefined: post_id"
p3
sS'layer'
p4
S'/Users/hairongwu/Desktop/web2py/applications/SlugHero/controllers/forum.py'
p5
sS'code'
p6
S'from gluon.tools import Crud\nimport math\ncrud = Crud(db)\n\nPOSTS_PER_PAGE = 50\nPOSTS_PER_PAGE_COMM = 10\n#add a new comment!\n\n\ndef generalForum():\n    page = request.args(0,cast=int,default=0)\n    count = 0\n    swithColor = 1\n    start = page*POSTS_PER_PAGE\n    stop = start+POSTS_PER_PAGE\n    number = int(math.ceil(db(db.post.forumSection==\'forum\')(db.post.id > 0).count() /50.0))\n    if number - page <= 5:\n        count = 5-(number - page)\n\n    db.post.status.writable = db.post.status.readable = False\n    db.post.price.writable = db.post.price.readable = False\n    db.post.image.writable = db.post.image.readable = False\n    #forumData = db.post(request.args(0,cast=int)) or redirect(URL(\'bookExchange\'))\n    forums = db( db.post.price == None , db.post.status == False).select(orderby =~ db.post.update_time, limitby=(start,stop))\n    return locals()\n\ndef addForum():\n    db.post.user_id.default = auth.user.id\n    db.post.forumSection.default="forum"\n    db.post.price.writable = db.post.price.readable = False\n    db.post.status.writable = db.post.status.readable = False\n    db.post.image.writable = db.post.image.readable = False\n    form = crud.create(db.post)\n    return locals()\n\ndef editForum():\n\n    forum = db.post(request.args(0,cast=int))\n    #db.post.post_id.default = forum.id\n    db.post.price.writable = db.post.price.readable = False\n    db.post.status.writable = db.post.status.readable = False\n    db.post.image.writable = db.post.image.readable = False\n    form = crud.update(db.post, forum, next=URL(\'showEachForum\', args=request.args(0,cast=int)))\n    return locals()\n\ndef addForumImage():\n    image = db.forumImage(request.args(0,cast=int))\n    post_id= request.args(0,cast=int)\n    db.forumImage.post_id=post_id\n    form =SQLFORM(db.forumImage)\n    #form.post_id.default=post_id\n    #if form.process().accepted:\n    #    redirect(URL(\'showEachForum\', args=forum.post_id))\n    return locals()\n\n\n\n@auth.requires_login()\ndef showEachForum():\n     #control the pages\n    page = request.args(1,cast=int,default=0)\n    start = page*POSTS_PER_PAGE_COMM\n    stop = start+POSTS_PER_PAGE_COMM\n    count = 0\n    Cid=0\n    commDict={}\n    forum = db.post(request.args(0,cast=int)) or redirect(URL(\'generalForum\'))\n    number = int(math.ceil(db(db.comm.post_id == forum.id)(db.comm.id > 0).count() /10.0))\n    if number - page <= 5:\n        count = 5-(number - page)\n\n    #comms\n    db.comm.user_id.default = auth.user.id\n    db.comm.post_id.default = forum.id\n    form=SQLFORM(db.comm, record=None,\n        deletable=False, linkto=None,\n        upload=None, fields=None, labels=None,\n        col3={}, submit_button=\'Post comment\',\n        delete_label=\'Check to delete:\',\n        showid=True, readonly=False,\n        comments=True, keepopts=[],\n        ignore_rw=False, record_id=None,\n        formstyle=\'bootstrap3_stacked\',\n        buttons=[\'submit\'], separator=\': \')\n    if form.process().accepted:\n        response.flash = \'your comment is posted\'\n        updateTimer=db(db.comm.post_id==forum.id).select(db.comm.ALL, orderby=~db.comm.datetime, limitby=(0,1)).first()\n        oldTimer = db(db.post.id == forum.id).select().first()\n        oldTimer.update_record(update_time = updateTimer.datetime)\n        redirect(URL(\'showEachForum\', args=forum.id))\n    lenComms  = db(db.comm.post_id==forum.id).select(db.comm.ALL)\n    comms  = db(db.comm.post_id==forum.id).select(db.comm.ALL, orderby=db.comm.datetime, limitby=(start,stop))\n    forumimages= db(db.forumImage.post_id==forum.id).select(db.forumImage.ALL, orderby=db.forumImage.title)\n    #replyComments =  db.forumCommReply(request.args(0,cast=int)) or redirect(URL(\'generalForum\'))\n\n    #commTableInf = db.comm(request.args(0,cast=int)) or redirect(URL(\'generalForum\'))\n    #db.forumCommReply.comm_id.default = commTableInf.id\n\n    db.forumCommReply.user_id.default = auth.user.id\n    replyForm = SQLFORM(db.forumCommReply, record=None,\n        deletable=False, linkto=None,\n        upload=None, fields=None, labels=None,\n        col3={}, submit_button=\'Reply\',\n        delete_label=\'Check to delete:\',\n        showid=True, readonly=False,\n        comments=True, keepopts=[],\n        ignore_rw=False, record_id=None,\n        formstyle=\'bootstrap3_stacked\',\n        buttons=[\'submit\'], separator=\': \')\n    if replyForm.process().accepted:\n        commIdreply = db(db.forumCommReply.id == replyForm.vars.id).select().first()\n        commIdreply.update_record(comm_id = session.myCommid)\n        redirect(URL(\'showEachForum\', args=request.args(0,cast=int)))\n    return locals()\n\n@auth.requires_login()\ndef replyComment():\n    commTableInf = db.comm(request.args(0,cast=int)) or redirect(URL(\'generalForum\'))\n    db.forumCommReply.comm_id.default = commTableInf.id\n    db.forumCommReply.user_id.default = auth.user.id\n    form = SQLFORM(db.forumCommReply, record=None,\n        deletable=False, linkto=None,\n        upload=None, fields=None, labels=None,\n        col3={}, submit_button=\'Reply\',\n        delete_label=\'Check to delete:\',\n        showid=True, readonly=False,\n        comments=True, keepopts=[],\n        ignore_rw=False, record_id=None,\n        formstyle=\'bootstrap3_stacked\',\n        buttons=[\'submit\'], separator=\': \')\n    if form.process().accepted:\n        redirect(URL(\'showEachForum\', args=request.args(1,cast=int)))\n    return locals()\n\n@auth.requires_login()\ndef editForumComment():\n    editComm=db.comm(request.args(0,cast=int)) or redirect(URL(\'showEachForum\'))\n    if auth.user_id == editComm.user_id:\n       form = crud.update(db.comm, editComm, next=URL(\'showEachForum\', args=request.args(1,cast=int)))\n    return dict(form=form)\n\n@auth.requires_login()\ndef bookExchange():\n    page = request.args(0,cast=int,default=0)\n    count = 0\n    start = page*POSTS_PER_PAGE_COMM\n    stop = start+POSTS_PER_PAGE_COMM\n    #show_all = request.args(0) == \'all\'\n    q = db.post\n    listings = db(db.post.forumSection==\'bookExchange\').select(orderby =~ db.post.datetime, limitby=(start,stop))\n    number = int(math.ceil(db(db.post.forumSection==\'bookExchange\')(db.post.id > 0).count() /10.0))\n    if number - page <= 5:\n        count = 5-(number - page)\n    #a = FORM(INPUT(_name=\'a\', requires=IS_INT_IN_RANGE(0, 10)),\n    #   INPUT(_type=\'submit\'), value _action=URL(\'page_two\'))\n\n    #a.add_button(\'Back\', URL(\'other_page\'))\n    #if show_all:\n    #button = A(\'Show available items\', _class="btn btn-info", _href=URL(\'default\', \'bookExchange\'))\n    #else:\n    #    button = A(\'Show all items\', _class="btn btn-info", _href=URL(\'default\', \'bookExchange\', args=[\'all\']))\n\n    #if show_all:\n    #    q = db.post\n    #    listings = db().select(orderby = db.post.title, limitby=(start,stop))\n    #else:\n    #    q=(db.post.status == True)\n    #    listings = db(db.post.status == True).select(orderby = db.post.title, limitby=(start,stop))\n    form = SQLFORM.grid(q,\n        args=request.args[:1],\n        fields=[db.post.title,\n                    db.post.title,\n                    db.post.body,\n               ],\n        editable=False, deletable=False,\n        paginate=10,\n        csv=False,\n        create=False,\n        searchable=False\n        )\n    enterNumber= FORM(\'Go to page:\', INPUT(_name=\'num\', requires= IS_INT_IN_RANGE(1,number+1),_size =\'1\'),\n                               INPUT(_type=\'submit\', _value= "Go"))\n    if enterNumber.process().accepted:\n        redirect(URL(args=(int(request.vars.num) -1)))\n    elif enterNumber.errors:\n        response.flash = \'enter a number\'\n    return locals()\n\n\n@auth.requires_login()\ndef showBook():\n    #control the pages\n    page = request.args(1,cast=int,default=0)\n    start = page*POSTS_PER_PAGE\n    stop = start+POSTS_PER_PAGE\n    count = 0\n    book = db.post(request.args(0,cast=int)) or redirect(URL(\'bookExchange\'))\n    number = int(math.ceil(db(db.comm.post_id == book.id)(db.comm.id > 0).count() /10.0))\n    if number - page <= 5:\n        count = 5-(number - page)\n    #comms\n    db.comm.user_id.default = auth.user.id\n    db.comm.post_id.default = book.id\n    form=SQLFORM(db.comm, record=None,\n        deletable=False, linkto=None,\n        upload=None, fields=None, labels=None,\n        col3={}, submit_button=\'Post\',\n        delete_label=\'Check to delete:\',\n        showid=True, readonly=False,\n        comments=True, keepopts=[],\n        ignore_rw=False, record_id=None,\n        formstyle=\'bootstrap3_stacked\',\n        buttons=[\'submit\'], separator=\': \')\n    #crud.settings.captcha = None\n    #crud.settings.showid = False\n    #crud.settings.label_separator = \':\'\n    #crud.messages.submit_button = \'Post\'\n    #crud.settings.formstyle = \'divs\'\n    #form = crud.create(db.comm)\n    if form.process().accepted:\n        response.flash = \'your comment is posted\'\n        redirect(URL(\'showBook\', args=book.id))\n    comments = db(db.comm.post_id == book.id).select(db.comm.ALL, orderby=~db.comm.datetime, limitby=(start,stop))\n    return locals()\n\n@auth.requires_login()\ndef addBookItem():\n    db.post.user_id.default = auth.user.id\n    db.post.forumSection.default = \'bookExchange\'\n    crud.messages.submit_button = \'Place on market\'\n    crud.settings.keepvalues = True\n    crud.settings.label_separator = \' :\'\n    crud.settings.formstyle = \'ul\'\n    form = crud.create(db.post).process(next=\'bookExchange\')\n    return locals()\n\ndef manageBookItems():\n    grid = SQLFORM.grid(db.post)\n    return locals()\n\n@auth.requires_login()\ndef editBookItem():\n    bookItem=db.post(request.args(0,cast=int)) or redirect(URL(\'showBook\'))\n    if auth.user_id == bookItem.user_id:\n       form = crud.update(db.post, bookItem, next=URL(\'showBook\', args=request.args(0,cast=int)))\n    return dict(form=form)\n\n@auth.requires_login()\ndef editComment():\n    editComm=db.comm(request.args(0,cast=int)) or redirect(URL(\'showBook\'))\n    if auth.user_id == editComm.user_id:\n       form = crud.update(db.comm, editComm, next=URL(\'showBook\', args=request.args(1,cast=int)))\n    return dict(form=form)\n\n@auth.requires_login()\ndef manageItems():\n    grid = SQLFORM.grid(db.post)\n    return locals()\n\n@cache.action()\ndef download():\n    """\n    allows downloading of uploaded files\n    http://..../[app]/default/download/[filename]\n    """\n    return response.download(request, db)\n\nresponse._vars=response._caller(addForumImage)\n'
p7
sS'snapshot'
p8
(dp9
S'exception'
p10
(dp11
S'__getslice__'
p12
S"<method-wrapper '__getslice__' of exceptions.SyntaxError object>"
p13
sS'text'
p14
S'None'
p15
sS'__str__'
p16
S"<method-wrapper '__str__' of exceptions.SyntaxError object>"
p17
sS'__reduce__'
p18
S'<built-in method __reduce__ of exceptions.SyntaxError object>'
p19
sS'__dict__'
p20
S'{}'
p21
sS'__sizeof__'
p22
S'<built-in method __sizeof__ of exceptions.SyntaxError object>'
p23
sS'__init__'
p24
S"<method-wrapper '__init__' of exceptions.SyntaxError object>"
p25
sS'__setattr__'
p26
S"<method-wrapper '__setattr__' of exceptions.SyntaxError object>"
p27
sS'__reduce_ex__'
p28
S'<built-in method __reduce_ex__ of exceptions.SyntaxError object>'
p29
sS'__new__'
p30
S'<built-in method __new__ of type object>'
p31
sS'__format__'
p32
S'<built-in method __format__ of exceptions.SyntaxError object>'
p33
sS'__class__'
p34
S"<type 'exceptions.SyntaxError'>"
p35
sS'filename'
p36
S'None'
p37
sS'lineno'
p38
S'None'
p39
sS'msg'
p40
S"'Object exists and cannot be redefined: post_id'"
p41
sS'__doc__'
p42
S"'Invalid syntax.'"
p43
sS'__getitem__'
p44
S"<method-wrapper '__getitem__' of exceptions.SyntaxError object>"
p45
sS'__setstate__'
p46
S'<built-in method __setstate__ of exceptions.SyntaxError object>'
p47
sS'__getattribute__'
p48
S"<method-wrapper '__getattribute__' of exceptions.SyntaxError object>"
p49
sS'print_file_and_line'
p50
S'None'
p51
sS'args'
p52
S"('Object exists and cannot be redefined: post_id',)"
p53
sS'__subclasshook__'
p54
S'<built-in method __subclasshook__ of type object>'
p55
sS'offset'
p56
S'None'
p57
sS'__unicode__'
p58
S'<built-in method __unicode__ of exceptions.SyntaxError object>'
p59
sS'__delattr__'
p60
S"<method-wrapper '__delattr__' of exceptions.SyntaxError object>"
p61
sS'__repr__'
p62
S"<method-wrapper '__repr__' of exceptions.SyntaxError object>"
p63
sS'__hash__'
p64
S"<method-wrapper '__hash__' of exceptions.SyntaxError object>"
p65
ssS'evalue'
p66
S'Object exists and cannot be redefined: post_id'
p67
sS'request'
p68
cgluon.html
XML_unpickle
p69
(S's\x81\x93\x00\x00<div><table><tr><td style="font-weight:bold;vertical-align:top;">ajax</td><td style="vertical-align:top;">:</td><td><div>False</div></td></tr><tr><td style="font-weight:bold;vertical-align:top;">application</td><td style="vertical-align:top;">:</td><td><div>SlugHero</div></td></tr><tr><td style="font-weight:bold;vertical-align:top;">args</td><td style="vertical-align:top;">:</td><td><div><table><tr><td><div>6</div></td></tr></table></div></td></tr><tr><td style="font-weight:bold;vertical-align:top;">cid</td><td style="vertical-align:top;">:</td><td><div>None</div></td></tr><tr><td style="font-weight:bold;vertical-align:top;">client</td><td style="vertical-align:top;">:</td><td><div>127.0.0.1</div></td></tr><tr><td style="font-weight:bold;vertical-align:top;">controller</td><td style="vertical-align:top;">:</td><td><div>forum</div></td></tr><tr><td style="font-weight:bold;vertical-align:top;">cookies</td><td style="vertical-align:top;">:</td><td><div><table><tr><td style="font-weight:bold;vertical-align:top;">session_id_admin</td><td style="vertical-align:top;">:</td><td><div>127.0.0.1-e8732aec-90c7-483f-a618-1a499e7bf452<table><tr><td style="font-weight:bold;vertical-align:top;">comment</td><td style="vertical-align:top;">:</td><td><div></div></td></tr><tr><td style="font-weight:bold;vertical-align:top;">domain</td><td style="vertical-align:top;">:</td><td><div></div></td></tr><tr><td style="font-weight:bold;vertical-align:top;">expires</td><td style="vertical-align:top;">:</td><td><div></div></td></tr><tr><td style="font-weight:bold;vertical-align:top;">httponly</td><td style="vertical-align:top;">:</td><td><div></div></td></tr><tr><td style="font-weight:bold;vertical-align:top;">max-age</td><td style="vertical-align:top;">:</td><td><div></div></td></tr><tr><td style="font-weight:bold;vertical-align:top;">path</td><td style="vertical-align:top;">:</td><td><div></div></td></tr><tr><td style="font-weight:bold;vertical-align:top;">secure</td><td style="vertical-align:top;">:</td><td><div></div></td></tr><tr><td style="font-weight:bold;vertical-align:top;">version</td><td style="vertical-align:top;">:</td><td><div></div></td></tr></table></div></td></tr><tr><td style="font-weight:bold;vertical-align:top;">session_id_examples</td><td style="vertical-align:top;">:</td><td><div>True<table><tr><td style="font-weight:bold;vertical-align:top;">comment</td><td style="vertical-align:top;">:</td><td><div></div></td></tr><tr><td style="font-weight:bold;vertical-align:top;">domain</td><td style="vertical-align:top;">:</td><td><div></div></td></tr><tr><td style="font-weight:bold;vertical-align:top;">expires</td><td style="vertical-align:top;">:</td><td><div></div></td></tr><tr><td style="font-weight:bold;vertical-align:top;">httponly</td><td style="vertical-align:top;">:</td><td><div></div></td></tr><tr><td style="font-weight:bold;vertical-align:top;">max-age</td><td style="vertical-align:top;">:</td><td><div></div></td></tr><tr><td style="font-weight:bold;vertical-align:top;">path</td><td style="vertical-align:top;">:</td><td><div></div></td></tr><tr><td style="font-weight:bold;vertical-align:top;">secure</td><td style="vertical-align:top;">:</td><td><div></div></td></tr><tr><td style="font-weight:bold;vertical-align:top;">version</td><td style="vertical-align:top;">:</td><td><div></div></td></tr></table></div></td></tr><tr><td style="font-weight:bold;vertical-align:top;">session_id_image2</td><td style="vertical-align:top;">:</td><td><div>127.0.0.1-ef8dc0a3-e49a-4464-8743-ae2e935dacf0<table><tr><td style="font-weight:bold;vertical-align:top;">comment</td><td style="vertical-align:top;">:</td><td><div></div></td></tr><tr><td style="font-weight:bold;vertical-align:top;">domain</td><td style="vertical-align:top;">:</td><td><div></div></td></tr><tr><td style="font-weight:bold;vertical-align:top;">expires</td><td style="vertical-align:top;">:</td><td><div></div></td></tr><tr><td style="font-weight:bold;vertical-align:top;">httponly</td><td style="vertical-align:top;">:</td><td><div></div></td></tr><tr><td style="font-weight:bold;vertical-align:top;">max-age</td><td style="vertical-align:top;">:</td><td><div></div></td></tr><tr><td style="font-weight:bold;vertical-align:top;">path</td><td style="vertical-align:top;">:</td><td><div></div></td></tr><tr><td style="font-weight:bold;vertical-align:top;">secure</td><td style="vertical-align:top;">:</td><td><div></div></td></tr><tr><td style="font-weight:bold;vertical-align:top;">version</td><td style="vertical-align:top;">:</td><td><div></div></td></tr></table></div></td></tr><tr><td style="font-weight:bold;vertical-align:top;">session_id_load</td><td style="vertical-align:top;">:</td><td><div>127.0.0.1-763b7c48-3b42-40f9-a70f-d6e071a95ec8<table><tr><td style="font-weight:bold;vertical-align:top;">comment</td><td style="vertical-align:top;">:</td><td><div></div></td></tr><tr><td style="font-weight:bold;vertical-align:top;">domain</td><td style="vertical-align:top;">:</td><td><div></div></td></tr><tr><td style="font-weight:bold;vertical-align:top;">expires</td><td style="vertical-align:top;">:</td><td><div></div></td></tr><tr><td style="font-weight:bold;vertical-align:top;">httponly</td><td style="vertical-align:top;">:</td><td><div></div></td></tr><tr><td style="font-weight:bold;vertical-align:top;">max-age</td><td style="vertical-align:top;">:</td><td><div></div></td></tr><tr><td style="font-weight:bold;vertical-align:top;">path</td><td style="vertical-align:top;">:</td><td><div></div></td></tr><tr><td style="font-weight:bold;vertical-align:top;">secure</td><td style="vertical-align:top;">:</td><td><div></div></td></tr><tr><td style="font-weight:bold;vertical-align:top;">version</td><td style="vertical-align:top;">:</td><td><div></div></td></tr></table></div></td></tr><tr><td style="font-weight:bold;vertical-align:top;">session_id_mywiki</td><td style="vertical-align:top;">:</td><td><div>127.0.0.1-063f7e19-b1a3-41b7-ab7e-cf3d387fb7ae<table><tr><td style="font-weight:bold;vertical-align:top;">comment</td><td style="vertical-align:top;">:</td><td><div></div></td></tr><tr><td style="font-weight:bold;vertical-align:top;">domain</td><td style="vertical-align:top;">:</td><td><div></div></td></tr><tr><td style="font-weight:bold;vertical-align:top;">expires</td><td style="vertical-align:top;">:</td><td><div></div></td></tr><tr><td style="font-weight:bold;vertical-align:top;">httponly</td><td style="vertical-align:top;">:</td><td><div></div></td></tr><tr><td style="font-weight:bold;vertical-align:top;">max-age</td><td style="vertical-align:top;">:</td><td><div></div></td></tr><tr><td style="font-weight:bold;vertical-align:top;">path</td><td style="vertical-align:top;">:</td><td><div></div></td></tr><tr><td style="font-weight:bold;vertical-align:top;">secure</td><td style="vertical-align:top;">:</td><td><div></div></td></tr><tr><td style="font-weight:bold;vertical-align:top;">version</td><td style="vertical-align:top;">:</td><td><div></div></td></tr></table></div></td></tr><tr><td style="font-weight:bold;vertical-align:top;">session_id_salelist</td><td style="vertical-align:top;">:</td><td><div>127.0.0.1-8ea19b48-a07b-4b79-9e7a-8cd84dcb48b2<table><tr><td style="font-weight:bold;vertical-align:top;">comment</td><td style="vertical-align:top;">:</td><td><div></div></td></tr><tr><td style="font-weight:bold;vertical-align:top;">domain</td><td style="vertical-align:top;">:</td><td><div></div></td></tr><tr><td style="font-weight:bold;vertical-align:top;">expires</td><td style="vertical-align:top;">:</td><td><div></div></td></tr><tr><td style="font-weight:bold;vertical-align:top;">httponly</td><td style="vertical-align:top;">:</td><td><div></div></td></tr><tr><td style="font-weight:bold;vertical-align:top;">max-age</td><td style="vertical-align:top;">:</td><td><div></div></td></tr><tr><td style="font-weight:bold;vertical-align:top;">path</td><td style="vertical-align:top;">:</td><td><div></div></td></tr><tr><td style="font-weight:bold;vertical-align:top;">secure</td><td style="vertical-align:top;">:</td><td><div></div></td></tr><tr><td style="font-weight:bold;vertical-align:top;">version</td><td style="vertical-align:top;">:</td><td><div></div></td></tr></table></div></td></tr><tr><td style="font-weight:bold;vertical-align:top;">session_id_slughero</td><td style="vertical-align:top;">:</td><td><div>127.0.0.1-4ebef065-a3b9-42e2-981d-565697235a01<table><tr><td style="font-weight:bold;vertical-align:top;">comment</td><td style="vertical-align:top;">:</td><td><div></div></td></tr><tr><td style="font-weight:bold;vertical-align:top;">domain</td><td style="vertical-align:top;">:</td><td><div></div></td></tr><tr><td style="font-weight:bold;vertical-align:top;">expires</td><td style="vertical-align:top;">:</td><td><div></div></td></tr><tr><td style="font-weight:bold;vertical-align:top;">httponly</td><td style="vertical-align:top;">:</td><td><div></div></td></tr><tr><td style="font-weight:bold;vertical-align:top;">max-age</td><td style="vertical-align:top;">:</td><td><div></div></td></tr><tr><td style="font-weight:bold;vertical-align:top;">path</td><td style="vertical-align:top;">:</td><td><div></div></td></tr><tr><td style="font-weight:bold;vertical-align:top;">secure</td><td style="vertical-align:top;">:</td><td><div></div></td></tr><tr><td style="font-weight:bold;vertical-align:top;">version</td><td style="vertical-align:top;">:</td><td><div></div></td></tr></table></div></td></tr><tr><td style="font-weight:bold;vertical-align:top;">session_id_test</td><td style="vertical-align:top;">:</td><td><div>127.0.0.1-836aa30f-42e8-4873-9de6-82fe6a7ccc37<table><tr><td style="font-weight:bold;vertical-align:top;">comment</td><td style="vertical-align:top;">:</td><td><div></div></td></tr><tr><td style="font-weight:bold;vertical-align:top;">domain</td><td style="vertical-align:top;">:</td><td><div></div></td></tr><tr><td style="font-weight:bold;vertical-align:top;">expires</td><td style="vertical-align:top;">:</td><td><div></div></td></tr><tr><td style="font-weight:bold;vertical-align:top;">httponly</td><td style="vertical-align:top;">:</td><td><div></div></td></tr><tr><td style="font-weight:bold;vertical-align:top;">max-age</td><td style="vertical-align:top;">:</td><td><div></div></td></tr><tr><td style="font-weight:bold;vertical-align:top;">path</td><td style="vertical-align:top;">:</td><td><div></div></td></tr><tr><td style="font-weight:bold;vertical-align:top;">secure</td><td style="vertical-align:top;">:</td><td><div></div></td></tr><tr><td style="font-weight:bold;vertical-align:top;">version</td><td style="vertical-align:top;">:</td><td><div></div></td></tr></table></div></td></tr><tr><td style="font-weight:bold;vertical-align:top;">session_id_testajax</td><td style="vertical-align:top;">:</td><td><div>127.0.0.1-bf44bd5f-07af-4f19-b7a1-eb5d04999233<table><tr><td style="font-weight:bold;vertical-align:top;">comment</td><td style="vertical-align:top;">:</td><td><div></div></td></tr><tr><td style="font-weight:bold;vertical-align:top;">domain</td><td style="vertical-align:top;">:</td><td><div></div></td></tr><tr><td style="font-weight:bold;vertical-align:top;">expires</td><td style="vertical-align:top;">:</td><td><div></div></td></tr><tr><td style="font-weight:bold;vertical-align:top;">httponly</td><td style="vertical-align:top;">:</td><td><div></div></td></tr><tr><td style="font-weight:bold;vertical-align:top;">max-age</td><td style="vertical-align:top;">:</td><td><div></div></td></tr><tr><td style="font-weight:bold;vertical-align:top;">path</td><td style="vertical-align:top;">:</td><td><div></div></td></tr><tr><td style="font-weight:bold;vertical-align:top;">secure</td><td style="vertical-align:top;">:</td><td><div></div></td></tr><tr><td style="font-weight:bold;vertical-align:top;">version</td><td style="vertical-align:top;">:</td><td><div></div></td></tr></table></div></td></tr><tr><td style="font-weight:bold;vertical-align:top;">session_id_testcomp1</td><td style="vertical-align:top;">:</td><td><div>127.0.0.1-cd1cc44e-6602-47e6-a3f7-01b76fc0825b<table><tr><td style="font-weight:bold;vertical-align:top;">comment</td><td style="vertical-align:top;">:</td><td><div></div></td></tr><tr><td style="font-weight:bold;vertical-align:top;">domain</td><td style="vertical-align:top;">:</td><td><div></div></td></tr><tr><td style="font-weight:bold;vertical-align:top;">expires</td><td style="vertical-align:top;">:</td><td><div></div></td></tr><tr><td style="font-weight:bold;vertical-align:top;">httponly</td><td style="vertical-align:top;">:</td><td><div></div></td></tr><tr><td style="font-weight:bold;vertical-align:top;">max-age</td><td style="vertical-align:top;">:</td><td><div></div></td></tr><tr><td style="font-weight:bold;vertical-align:top;">path</td><td style="vertical-align:top;">:</td><td><div></div></td></tr><tr><td style="font-weight:bold;vertical-align:top;">secure</td><td style="vertical-align:top;">:</td><td><div></div></td></tr><tr><td style="font-weight:bold;vertical-align:top;">version</td><td style="vertical-align:top;">:</td><td><div></div></td></tr></table></div></td></tr><tr><td style="font-weight:bold;vertical-align:top;">session_id_testcond</td><td style="vertical-align:top;">:</td><td><div>127.0.0.1-47f77cb9-5941-4321-81df-54ca1a0c6df3<table><tr><td style="font-weight:bold;vertical-align:top;">comment</td><td style="vertical-align:top;">:</td><td><div></div></td></tr><tr><td style="font-weight:bold;vertical-align:top;">domain</td><td style="vertical-align:top;">:</td><td><div></div></td></tr><tr><td style="font-weight:bold;vertical-align:top;">expires</td><td style="vertical-align:top;">:</td><td><div></div></td></tr><tr><td style="font-weight:bold;vertical-align:top;">httponly</td><td style="vertical-align:top;">:</td><td><div></div></td></tr><tr><td style="font-weight:bold;vertical-align:top;">max-age</td><td style="vertical-align:top;">:</td><td><div></div></td></tr><tr><td style="font-weight:bold;vertical-align:top;">path</td><td style="vertical-align:top;">:</td><td><div></div></td></tr><tr><td style="font-weight:bold;vertical-align:top;">secure</td><td style="vertical-align:top;">:</td><td><div></div></td></tr><tr><td style="font-weight:bold;vertical-align:top;">version</td><td style="vertical-align:top;">:</td><td><div></div></td></tr></table></div></td></tr><tr><td style="font-weight:bold;vertical-align:top;">session_id_testjquery</td><td style="vertical-align:top;">:</td><td><div>127.0.0.1-af5fa0b0-003d-4ec6-bfed-eaaeabde15ac<table><tr><td style="font-weight:bold;vertical-align:top;">comment</td><td style="vertical-align:top;">:</td><td><div></div></td></tr><tr><td style="font-weight:bold;vertical-align:top;">domain</td><td style="vertical-align:top;">:</td><td><div></div></td></tr><tr><td style="font-weight:bold;vertical-align:top;">expires</td><td style="vertical-align:top;">:</td><td><div></div></td></tr><tr><td style="font-weight:bold;vertical-align:top;">httponly</td><td style="vertical-align:top;">:</td><td><div></div></td></tr><tr><td style="font-weight:bold;vertical-align:top;">max-age</td><td style="vertical-align:top;">:</td><td><div></div></td></tr><tr><td style="font-weight:bold;vertical-align:top;">path</td><td style="vertical-align:top;">:</td><td><div></div></td></tr><tr><td style="font-weight:bold;vertical-align:top;">secure</td><td style="vertical-align:top;">:</td><td><div></div></td></tr><tr><td style="font-weight:bold;vertical-align:top;">version</td><td style="vertical-align:top;">:</td><td><div></div></td></tr></table></div></td></tr><tr><td style="font-weight:bold;vertical-align:top;">session_id_welcome</td><td style="vertical-align:top;">:</td><td><div>127.0.0.1-d58a68b0-f0d6-4b49-94cd-e9ffd7673643<table><tr><td style="font-weight:bold;vertical-align:top;">comment</td><td style="vertical-align:top;">:</td><td><div></div></td></tr><tr><td style="font-weight:bold;vertical-align:top;">domain</td><td style="vertical-align:top;">:</td><td><div></div></td></tr><tr><td style="font-weight:bold;vertical-align:top;">expires</td><td style="vertical-align:top;">:</td><td><div></div></td></tr><tr><td style="font-weight:bold;vertical-align:top;">httponly</td><td style="vertical-align:top;">:</td><td><div></div></td></tr><tr><td style="font-weight:bold;vertical-align:top;">max-age</td><td style="vertical-align:top;">:</td><td><div></div></td></tr><tr><td style="font-weight:bold;vertical-align:top;">path</td><td style="vertical-align:top;">:</td><td><div></div></td></tr><tr><td style="font-weight:bold;vertical-align:top;">secure</td><td style="vertical-align:top;">:</td><td><div></div></td></tr><tr><td style="font-weight:bold;vertical-align:top;">version</td><td style="vertical-align:top;">:</td><td><div></div></td></tr></table></div></td></tr></table></div></td></tr><tr><td style="font-weight:bold;vertical-align:top;">env</td><td style="vertical-align:top;">:</td><td><div><table><tr><td style="font-weight:bold;vertical-align:top;">HTTP_ACCEPT</td><td style="vertical-align:top;">:</td><td><div>text/html,application/xhtml+xml,application/xml;q=0.9,image/webp,*/*;q=0.8</div></td></tr><tr><td style="font-weight:bold;vertical-align:top;">HTTP_ACCEPT_ENCODING</td><td style="vertical-align:top;">:</td><td><div>gzip, deflate, sdch</div></td></tr><tr><td style="font-weight:bold;vertical-align:top;">HTTP_ACCEPT_LANGUAGE</td><td style="vertical-align:top;">:</td><td><div>en-US,en;q=0.8,zh-CN;q=0.6</div></td></tr><tr><td style="font-weight:bold;vertical-align:top;">HTTP_CACHE_CONTROL</td><td style="vertical-align:top;">:</td><td><div>max-age=0</div></td></tr><tr><td style="font-weight:bold;vertical-align:top;">HTTP_CONNECTION</td><td style="vertical-align:top;">:</td><td><div>keep-alive</div></td></tr><tr><td style="font-weight:bold;vertical-align:top;">HTTP_COOKIE</td><td style="vertical-align:top;">:</td><td><div>session_id_mywiki=127.0.0.1-063f7e19-b1a3-41b7-ab7e-cf3d387fb7ae; session_id_testjquery=127.0.0.1-af5fa0b0-003d-4ec6-bfed-eaaeabde15ac; session_id_testcond=127.0.0.1-47f77cb9-5941-4321-81df-54ca1a0c6df3; session_id_testcomp1=127.0.0.1-cd1cc44e-6602-47e6-a3f7-01b76fc0825b; session_id_image2=127.0.0.1-ef8dc0a3-e49a-4464-8743-ae2e935dacf0; session_id_testajax=127.0.0.1-bf44bd5f-07af-4f19-b7a1-eb5d04999233; session_id_examples=True; session_id_welcome=127.0.0.1-d58a68b0-f0d6-4b49-94cd-e9ffd7673643; session_id_salelist=127.0.0.1-8ea19b48-a07b-4b79-9e7a-8cd84dcb48b2; session_id_load=127.0.0.1-763b7c48-3b42-40f9-a70f-d6e071a95ec8; session_id_test=127.0.0.1-836aa30f-42e8-4873-9de6-82fe6a7ccc37; session_id_admin=127.0.0.1-e8732aec-90c7-483f-a618-1a499e7bf452; session_id_slughero=127.0.0.1-4ebef065-a3b9-42e2-981d-565697235a01</div></td></tr><tr><td style="font-weight:bold;vertical-align:top;">HTTP_HOST</td><td style="vertical-align:top;">:</td><td><div>127.0.0.1:8000</div></td></tr><tr><td style="font-weight:bold;vertical-align:top;">HTTP_REFERER</td><td style="vertical-align:top;">:</td><td><div>http://127.0.0.1:8000/SlugHero/forum/showEachForum/6</div></td></tr><tr><td style="font-weight:bold;vertical-align:top;">HTTP_UPGRADE_INSECURE_REQUESTS</td><td style="vertical-align:top;">:</td><td><div>1</div></td></tr><tr><td style="font-weight:bold;vertical-align:top;">HTTP_USER_AGENT</td><td style="vertical-align:top;">:</td><td><div>Mozilla/5.0 (Macintosh; Intel Mac OS X 10_11_3) AppleWebKit/537.36 (KHTML, like Gecko) Chrome/48.0.2564.116 Safari/537.36</div></td></tr><tr><td style="font-weight:bold;vertical-align:top;">PATH_INFO</td><td style="vertical-align:top;">:</td><td><div>/SlugHero/forum/addForumImage/6</div></td></tr><tr><td style="font-weight:bold;vertical-align:top;">QUERY_STRING</td><td style="vertical-align:top;">:</td><td><div></div></td></tr><tr><td style="font-weight:bold;vertical-align:top;">REMOTE_ADDR</td><td style="vertical-align:top;">:</td><td><div>127.0.0.1</div></td></tr><tr><td style="font-weight:bold;vertical-align:top;">REMOTE_PORT</td><td style="vertical-align:top;">:</td><td><div>62185</div></td></tr><tr><td style="font-weight:bold;vertical-align:top;">REQUEST_METHOD</td><td style="vertical-align:top;">:</td><td><div>GET</div></td></tr><tr><td style="font-weight:bold;vertical-align:top;">SCRIPT_NAME</td><td style="vertical-align:top;">:</td><td><div></div></td></tr><tr><td style="font-weight:bold;vertical-align:top;">SERVER_NAME</td><td style="vertical-align:top;">:</td><td><div>Hairongs-MacBook-Air.local</div></td></tr><tr><td style="font-weight:bold;vertical-align:top;">SERVER_PORT</td><td style="vertical-align:top;">:</td><td><div>8000</div></td></tr><tr><td style="font-weight:bold;vertical-align:top;">SERVER_PROTOCOL</td><td style="vertical-align:top;">:</td><td><div>HTTP/1.1</div></td></tr><tr><td style="font-weight:bold;vertical-align:top;">SERVER_SOFTWARE</td><td style="vertical-align:top;">:</td><td><div>Rocket 1.2.6</div></td></tr><tr><td style="font-weight:bold;vertical-align:top;">app_folders</td><td style="vertical-align:top;">:</td><td><div>set([&#x27;/Users/hairongwu/Desktop/web2py/applications/admin/&#x27;, &#x27;/Users/hairongwu/Desktop/web2py/applications/SlugHero/&#x27;])</div></td></tr><tr><td style="font-weight:bold;vertical-align:top;">applications_parent</td><td style="vertical-align:top;">:</td><td><div>/Users/hairongwu/Desktop/web2py</div></td></tr><tr><td style="font-weight:bold;vertical-align:top;">cmd_args</td><td style="vertical-align:top;">:</td><td><div><table></table></div></td></tr><tr><td style="font-weight:bold;vertical-align:top;">cmd_options</td><td style="vertical-align:top;">:</td><td><div>&lt;Values at 0x10892d368: {&#x27;verbose&#x27;: False, &#x27;ip&#x27;: &#x27;127.0.0.1&#x27;, &#x27;debuglevel&#x27;: 30, &#x27;with_scheduler&#x27;: False, &#x27;ips&#x27;: [&#x27;192.168.1.134&#x27;, &#x27;fe80::2ef0:eeff:fe13:4246%en0&#x27;], &#x27;shutdown_timeout&#x27;: 5, &#x27;taskbar&#x27;: False, &#x27;with_coverage&#x27;: False, &#x27;scheduler_groups&#x27;: None, &#x27;port&#x27;: 8000, &#x27;maxthreads&#x27;: None, &#x27;softcron&#x27;: False, &#x27;server_name&#x27;: &#x27;Hairongs-MacBook-Air.local&#x27;, &#x27;bpython&#x27;: False, &#x27;nogui&#x27;: False, &#x27;pid_filename&#x27;: &#x27;httpserver.pid&#x27;, &#x27;print_errors&#x27;: False, &#x27;extcron&#x27;: False, &#x27;runcron&#x27;: False, &#x27;run_system_tests&#x27;: False, &#x27;test&#x27;: None, &#x27;folder&#x27;: &#x27;/Users/hairongwu/Desktop/web2py&#x27;, &#x27;config&#x27;: &#x27;&#x27;, &#x27;minthreads&#x27;: None, &#x27;shell&#x27;: None, &#x27;run&#x27;: &#x27;&#x27;, &#x27;log_filename&#x27;: &#x27;httpserver.log&#x27;, &#x27;profiler_dir&#x27;: None, &#x27;args&#x27;: [&#x27;&#x27;], &#x27;socket_timeout&#x27;: 5, &#x27;ssl_ca_certificate&#x27;: None, &#x27;scheduler&#x27;: None, &#x27;interfaces&#x27;: None, &#x27;ssl_private_key&#x27;: &#x27;&#x27;, &#x27;gae&#x27;: None, &#x27;password&#x27;: &#x27;&lt;ask&gt;&#x27;, &#x27;request_queue_size&#x27;: 5, &#x27;ssl_certificate&#x27;: &#x27;&#x27;, &#x27;cronjob&#x27;: False, &#x27;numthreads&#x27;: None, &#x27;quiet&#x27;: False, &#x27;import_models&#x27;: False, &#x27;timeout&#x27;: 10, &#x27;plain&#x27;: False, &#x27;nobanner&#x27;: False}&gt;</div></td></tr><tr><td style="font-weight:bold;vertical-align:top;">db_sessions</td><td style="vertical-align:top;">:</td><td><div>set([])</div></td></tr><tr><td style="font-weight:bold;vertical-align:top;">debugging</td><td style="vertical-align:top;">:</td><td><div>True</div></td></tr><tr><td style="font-weight:bold;vertical-align:top;">gluon_parent</td><td style="vertical-align:top;">:</td><td><div>/Users/hairongwu/Desktop/web2py</div></td></tr><tr><td style="font-weight:bold;vertical-align:top;">http_accept</td><td style="vertical-align:top;">:</td><td><div>text/html,application/xhtml+xml,application/xml;q=0.9,image/webp,*/*;q=0.8</div></td></tr><tr><td style="font-weight:bold;vertical-align:top;">http_accept_encoding</td><td style="vertical-align:top;">:</td><td><div>gzip, deflate, sdch</div></td></tr><tr><td style="font-weight:bold;vertical-align:top;">http_accept_language</td><td style="vertical-align:top;">:</td><td><div>en-US,en;q=0.8,zh-CN;q=0.6</div></td></tr><tr><td style="font-weight:bold;vertical-align:top;">http_cache_control</td><td style="vertical-align:top;">:</td><td><div>max-age=0</div></td></tr><tr><td style="font-weight:bold;vertical-align:top;">http_connection</td><td style="vertical-align:top;">:</td><td><div>keep-alive</div></td></tr><tr><td style="font-weight:bold;vertical-align:top;">http_cookie</td><td style="vertical-align:top;">:</td><td><div>session_id_mywiki=127.0.0.1-063f7e19-b1a3-41b7-ab7e-cf3d387fb7ae; session_id_testjquery=127.0.0.1-af5fa0b0-003d-4ec6-bfed-eaaeabde15ac; session_id_testcond=127.0.0.1-47f77cb9-5941-4321-81df-54ca1a0c6df3; session_id_testcomp1=127.0.0.1-cd1cc44e-6602-47e6-a3f7-01b76fc0825b; session_id_image2=127.0.0.1-ef8dc0a3-e49a-4464-8743-ae2e935dacf0; session_id_testajax=127.0.0.1-bf44bd5f-07af-4f19-b7a1-eb5d04999233; session_id_examples=True; session_id_welcome=127.0.0.1-d58a68b0-f0d6-4b49-94cd-e9ffd7673643; session_id_salelist=127.0.0.1-8ea19b48-a07b-4b79-9e7a-8cd84dcb48b2; session_id_load=127.0.0.1-763b7c48-3b42-40f9-a70f-d6e071a95ec8; session_id_test=127.0.0.1-836aa30f-42e8-4873-9de6-82fe6a7ccc37; session_id_admin=127.0.0.1-e8732aec-90c7-483f-a618-1a499e7bf452; session_id_slughero=127.0.0.1-4ebef065-a3b9-42e2-981d-565697235a01</div></td></tr><tr><td style="font-weight:bold;vertical-align:top;">http_host</td><td style="vertical-align:top;">:</td><td><div>127.0.0.1:8000</div></td></tr><tr><td style="font-weight:bold;vertical-align:top;">http_referer</td><td style="vertical-align:top;">:</td><td><div>http://127.0.0.1:8000/SlugHero/forum/showEachForum/6</div></td></tr><tr><td style="font-weight:bold;vertical-align:top;">http_upgrade_insecure_requests</td><td style="vertical-align:top;">:</td><td><div>1</div></td></tr><tr><td style="font-weight:bold;vertical-align:top;">http_user_agent</td><td style="vertical-align:top;">:</td><td><div>Mozilla/5.0 (Macintosh; Intel Mac OS X 10_11_3) AppleWebKit/537.36 (KHTML, like Gecko) Chrome/48.0.2564.116 Safari/537.36</div></td></tr><tr><td style="font-weight:bold;vertical-align:top;">is_jython</td><td style="vertical-align:top;">:</td><td><div>False</div></td></tr><tr><td style="font-weight:bold;vertical-align:top;">is_pypy</td><td style="vertical-align:top;">:</td><td><div>False</div></td></tr><tr><td style="font-weight:bold;vertical-align:top;">is_source</td><td style="vertical-align:top;">:</td><td><div>True</div></td></tr><tr><td style="font-weight:bold;vertical-align:top;">local_hosts</td><td style="vertical-align:top;">:</td><td><div><table><tr><td><div>192.168.1.134</div></td></tr><tr><td><div>::ffff:127.0.0.1</div></td></tr><tr><td><div>Hairongs-MacBook-Air.local</div></td></tr><tr><td><div>::1</div></td></tr><tr><td><div>127.0.0.1</div></td></tr><tr><td><div>fe80::2ef0:eeff:fe13:4246%en0</div></td></tr><tr><td><div>hairongs-macbook-air.local</div></td></tr></table></div></td></tr><tr><td style="font-weight:bold;vertical-align:top;">path_info</td><td style="vertical-align:top;">:</td><td><div>/SlugHero/forum/addForumImage/6</div></td></tr><tr><td style="font-weight:bold;vertical-align:top;">query_string</td><td style="vertical-align:top;">:</td><td><div></div></td></tr><tr><td style="font-weight:bold;vertical-align:top;">remote_addr</td><td style="vertical-align:top;">:</td><td><div>127.0.0.1</div></td></tr><tr><td style="font-weight:bold;vertical-align:top;">remote_port</td><td style="vertical-align:top;">:</td><td><div>62185</div></td></tr><tr><td style="font-weight:bold;vertical-align:top;">request_method</td><td style="vertical-align:top;">:</td><td><div>GET</div></td></tr><tr><td style="font-weight:bold;vertical-align:top;">request_uri</td><td style="vertical-align:top;">:</td><td><div>/SlugHero/forum/addForumImage/6</div></td></tr><tr><td style="font-weight:bold;vertical-align:top;">script_name</td><td style="vertical-align:top;">:</td><td><div></div></td></tr><tr><td style="font-weight:bold;vertical-align:top;">server_name</td><td style="vertical-align:top;">:</td><td><div>Hairongs-MacBook-Air.local</div></td></tr><tr><td style="font-weight:bold;vertical-align:top;">server_port</td><td style="vertical-align:top;">:</td><td><div>8000</div></td></tr><tr><td style="font-weight:bold;vertical-align:top;">server_protocol</td><td style="vertical-align:top;">:</td><td><div>HTTP/1.1</div></td></tr><tr><td style="font-weight:bold;vertical-align:top;">server_software</td><td style="vertical-align:top;">:</td><td><div>Rocket 1.2.6</div></td></tr><tr><td style="font-weight:bold;vertical-align:top;">web2py_path</td><td style="vertical-align:top;">:</td><td><div>/Users/hairongwu/Desktop/web2py</div></td></tr><tr><td style="font-weight:bold;vertical-align:top;">web2py_version</td><td style="vertical-align:top;">:</td><td><div>2.13.4-stable+timestamp.2015.12.26.04.59.39</div></td></tr><tr><td style="font-weight:bold;vertical-align:top;">wsgi.errors</td><td style="vertical-align:top;">:</td><td><div>&lt;open file &#x27;&lt;stderr&gt;&#x27;, mode &#x27;w&#x27; at 0x1079411e0&gt;</div></td></tr><tr><td style="font-weight:bold;vertical-align:top;">wsgi.file_wrapper</td><td style="vertical-align:top;">:</td><td><div>&lt;class wsgiref.util.FileWrapper at 0x1088d5808&gt;</div></td></tr><tr><td style="font-weight:bold;vertical-align:top;">wsgi.input</td><td style="vertical-align:top;">:</td><td><div>&lt;socket._fileobject object at 0x10efd6750&gt;</div></td></tr><tr><td style="font-weight:bold;vertical-align:top;">wsgi.multiprocess</td><td style="vertical-align:top;">:</td><td><div>False</div></td></tr><tr><td style="font-weight:bold;vertical-align:top;">wsgi.multithread</td><td style="vertical-align:top;">:</td><td><div>True</div></td></tr><tr><td style="font-weight:bold;vertical-align:top;">wsgi.run_once</td><td style="vertical-align:top;">:</td><td><div>False</div></td></tr><tr><td style="font-weight:bold;vertical-align:top;">wsgi.url_scheme</td><td style="vertical-align:top;">:</td><td><div>http</div></td></tr><tr><td style="font-weight:bold;vertical-align:top;">wsgi.version</td><td style="vertical-align:top;">:</td><td><div><table><tr><td><div>1</div></td></tr><tr><td><div>0</div></td></tr></table></div></td></tr><tr><td style="font-weight:bold;vertical-align:top;">wsgi_errors</td><td style="vertical-align:top;">:</td><td><div>&lt;open file &#x27;&lt;stderr&gt;&#x27;, mode &#x27;w&#x27; at 0x1079411e0&gt;</div></td></tr><tr><td style="font-weight:bold;vertical-align:top;">wsgi_file_wrapper</td><td style="vertical-align:top;">:</td><td><div>&lt;class wsgiref.util.FileWrapper at 0x1088d5808&gt;</div></td></tr><tr><td style="font-weight:bold;vertical-align:top;">wsgi_input</td><td style="vertical-align:top;">:</td><td><div>&lt;socket._fileobject object at 0x10efd6750&gt;</div></td></tr><tr><td style="font-weight:bold;vertical-align:top;">wsgi_multiprocess</td><td style="vertical-align:top;">:</td><td><div>False</div></td></tr><tr><td style="font-weight:bold;vertical-align:top;">wsgi_multithread</td><td style="vertical-align:top;">:</td><td><div>True</div></td></tr><tr><td style="font-weight:bold;vertical-align:top;">wsgi_run_once</td><td style="vertical-align:top;">:</td><td><div>False</div></td></tr><tr><td style="font-weight:bold;vertical-align:top;">wsgi_url_scheme</td><td style="vertical-align:top;">:</td><td><div>http</div></td></tr><tr><td style="font-weight:bold;vertical-align:top;">wsgi_version</td><td style="vertical-align:top;">:</td><td><div><table><tr><td><div>1</div></td></tr><tr><td><div>0</div></td></tr></table></div></td></tr></table></div></td></tr><tr><td style="font-weight:bold;vertical-align:top;">extension</td><td style="vertical-align:top;">:</td><td><div>html</div></td></tr><tr><td style="font-weight:bold;vertical-align:top;">folder</td><td style="vertical-align:top;">:</td><td><div>/Users/hairongwu/Desktop/web2py/applications/SlugHero/</div></td></tr><tr><td style="font-weight:bold;vertical-align:top;">function</td><td style="vertical-align:top;">:</td><td><div>addForumImage</div></td></tr><tr><td style="font-weight:bold;vertical-align:top;">global_settings</td><td style="vertical-align:top;">:</td><td><div><table><tr><td style="font-weight:bold;vertical-align:top;">app_folders</td><td style="vertical-align:top;">:</td><td><div>set([&#x27;/Users/hairongwu/Desktop/web2py/applications/admin/&#x27;, &#x27;/Users/hairongwu/Desktop/web2py/applications/SlugHero/&#x27;])</div></td></tr><tr><td style="font-weight:bold;vertical-align:top;">applications_parent</td><td style="vertical-align:top;">:</td><td><div>/Users/hairongwu/Desktop/web2py</div></td></tr><tr><td style="font-weight:bold;vertical-align:top;">cmd_args</td><td style="vertical-align:top;">:</td><td><div><table></table></div></td></tr><tr><td style="font-weight:bold;vertical-align:top;">cmd_options</td><td style="vertical-align:top;">:</td><td><div>&lt;Values at 0x10892d368: {&#x27;verbose&#x27;: False, &#x27;ip&#x27;: &#x27;127.0.0.1&#x27;, &#x27;debuglevel&#x27;: 30, &#x27;with_scheduler&#x27;: False, &#x27;ips&#x27;: [&#x27;192.168.1.134&#x27;, &#x27;fe80::2ef0:eeff:fe13:4246%en0&#x27;], &#x27;shutdown_timeout&#x27;: 5, &#x27;taskbar&#x27;: False, &#x27;with_coverage&#x27;: False, &#x27;scheduler_groups&#x27;: None, &#x27;port&#x27;: 8000, &#x27;maxthreads&#x27;: None, &#x27;softcron&#x27;: False, &#x27;server_name&#x27;: &#x27;Hairongs-MacBook-Air.local&#x27;, &#x27;bpython&#x27;: False, &#x27;nogui&#x27;: False, &#x27;pid_filename&#x27;: &#x27;httpserver.pid&#x27;, &#x27;print_errors&#x27;: False, &#x27;extcron&#x27;: False, &#x27;runcron&#x27;: False, &#x27;run_system_tests&#x27;: False, &#x27;test&#x27;: None, &#x27;folder&#x27;: &#x27;/Users/hairongwu/Desktop/web2py&#x27;, &#x27;config&#x27;: &#x27;&#x27;, &#x27;minthreads&#x27;: None, &#x27;shell&#x27;: None, &#x27;run&#x27;: &#x27;&#x27;, &#x27;log_filename&#x27;: &#x27;httpserver.log&#x27;, &#x27;profiler_dir&#x27;: None, &#x27;args&#x27;: [&#x27;&#x27;], &#x27;socket_timeout&#x27;: 5, &#x27;ssl_ca_certificate&#x27;: None, &#x27;scheduler&#x27;: None, &#x27;interfaces&#x27;: None, &#x27;ssl_private_key&#x27;: &#x27;&#x27;, &#x27;gae&#x27;: None, &#x27;password&#x27;: &#x27;&lt;ask&gt;&#x27;, &#x27;request_queue_size&#x27;: 5, &#x27;ssl_certificate&#x27;: &#x27;&#x27;, &#x27;cronjob&#x27;: False, &#x27;numthreads&#x27;: None, &#x27;quiet&#x27;: False, &#x27;import_models&#x27;: False, &#x27;timeout&#x27;: 10, &#x27;plain&#x27;: False, &#x27;nobanner&#x27;: False}&gt;</div></td></tr><tr><td style="font-weight:bold;vertical-align:top;">db_sessions</td><td style="vertical-align:top;">:</td><td><div>set([])</div></td></tr><tr><td style="font-weight:bold;vertical-align:top;">debugging</td><td style="vertical-align:top;">:</td><td><div>True</div></td></tr><tr><td style="font-weight:bold;vertical-align:top;">gluon_parent</td><td style="vertical-align:top;">:</td><td><div>/Users/hairongwu/Desktop/web2py</div></td></tr><tr><td style="font-weight:bold;vertical-align:top;">is_jython</td><td style="vertical-align:top;">:</td><td><div>False</div></td></tr><tr><td style="font-weight:bold;vertical-align:top;">is_pypy</td><td style="vertical-align:top;">:</td><td><div>False</div></td></tr><tr><td style="font-weight:bold;vertical-align:top;">is_source</td><td style="vertical-align:top;">:</td><td><div>True</div></td></tr><tr><td style="font-weight:bold;vertical-align:top;">local_hosts</td><td style="vertical-align:top;">:</td><td><div><table><tr><td><div>192.168.1.134</div></td></tr><tr><td><div>::ffff:127.0.0.1</div></td></tr><tr><td><div>Hairongs-MacBook-Air.local</div></td></tr><tr><td><div>::1</div></td></tr><tr><td><div>127.0.0.1</div></td></tr><tr><td><div>fe80::2ef0:eeff:fe13:4246%en0</div></td></tr><tr><td><div>hairongs-macbook-air.local</div></td></tr></table></div></td></tr><tr><td style="font-weight:bold;vertical-align:top;">web2py_version</td><td style="vertical-align:top;">:</td><td><div>2.13.4-stable+timestamp.2015.12.26.04.59.39</div></td></tr></table></div></td></tr><tr><td style="font-weight:bold;vertical-align:top;">is_https</td><td style="vertical-align:top;">:</td><td><div>False</div></td></tr><tr><td style="font-weight:bold;vertical-align:top;">is_local</td><td style="vertical-align:top;">:</td><td><div>True</div></td></tr><tr><td style="font-weight:bold;vertical-align:top;">is_restful</td><td style="vertical-align:top;">:</td><td><div>False</div></td></tr><tr><td style="font-weight:bold;vertical-align:top;">is_scheduler</td><td style="vertical-align:top;">:</td><td><div>False</div></td></tr><tr><td style="font-weight:bold;vertical-align:top;">is_shell</td><td style="vertical-align:top;">:</td><td><div>False</div></td></tr><tr><td style="font-weight:bold;vertical-align:top;">now</td><td style="vertical-align:top;">:</td><td><div>datetime.datetime(2016, 2, 27, 15, 56, 30, 501559)</div></td></tr><tr><td style="font-weight:bold;vertical-align:top;">raw_args</td><td style="vertical-align:top;">:</td><td><div>6</div></td></tr><tr><td style="font-weight:bold;vertical-align:top;">raw_extension</td><td style="vertical-align:top;">:</td><td><div>None</div></td></tr><tr><td style="font-weight:bold;vertical-align:top;">url</td><td style="vertical-align:top;">:</td><td><div>/SlugHero/forum/addForumImage/6</div></td></tr><tr><td style="font-weight:bold;vertical-align:top;">utcnow</td><td style="vertical-align:top;">:</td><td><div>datetime.datetime(2016, 2, 27, 23, 56, 30, 501571)</div></td></tr><tr><td style="font-weight:bold;vertical-align:top;">wsgi</td><td style="vertical-align:top;">:</td><td><div>&lt;gluon.main.LazyWSGI object at 0x10f014210&gt;</div></td></tr></table></div>'
tRp70
sS'frames'
p71
(lp72
(dp73
S'file'
p74
S'/Users/hairongwu/Desktop/web2py/gluon/restricted.py'
p75
sS'dump'
p76
(dp77
S'environment'
p78
S"{'A': <class 'gluon.html.A'>, 'ANY_OF': <class 'gluon.validators.ANY_OF'>, 'ASSIGNJS': <function ASSIGNJS>, 'AppConfig': <function AppConfig>, 'Auth': <class 'gluon.tools.Auth'>, 'B': <class 'gluon.html.B'>, 'BEAUTIFY': <class 'gluon.html.BEAUTIFY'>, 'BODY': <class 'gluon.html.BODY'>, 'BR': <class 'gluon.html.BR'>, 'BUTTON': <class 'gluon.html.BUTTON'>, ...}"
p79
sS'ccode'
p80
S'<code object <module> at 0x10e2b6130, file "/Use...lications/SlugHero/controllers/forum.py", line 1>'
p81
ssS'lnum'
p82
I227
sS'lines'
p83
(dp84
I224
S'            ccode = code'
p85
sI225
S'        else:'
p86
sI226
S'            ccode = compile2(code, layer)'
p87
sI227
S'        exec ccode in environment'
p88
sI228
S'    except HTTP:'
p89
sI229
S'        raise'
p90
sI230
S'    except RestrictedError:'
p91
sI231
S'        # do not encapsulate (obfuscate) the original RestrictedError'
p92
sI222
S'    try:'
p93
sI223
S'        if isinstance(code, types.CodeType):'
p94
ssS'call'
p95
S"(code='from gluon.tools import Crud\\nimport math\\ncrud = ...\\n\\nresponse._vars=response._caller(addForumImage)\\n', environment={'A': <class 'gluon.html.A'>, 'ANY_OF': <class 'gluon.validators.ANY_OF'>, 'ASSIGNJS': <function ASSIGNJS>, 'AppConfig': <function AppConfig>, 'Auth': <class 'gluon.tools.Auth'>, 'B': <class 'gluon.html.B'>, 'BEAUTIFY': <class 'gluon.html.BEAUTIFY'>, 'BODY': <class 'gluon.html.BODY'>, 'BR': <class 'gluon.html.BR'>, 'BUTTON': <class 'gluon.html.BUTTON'>, ...}, layer='/Users/hairongwu/Desktop/web2py/applications/SlugHero/controllers/forum.py')"
p96
sS'func'
p97
S'restricted'
p98
sa(dp99
g74
S'/Users/hairongwu/Desktop/web2py/applications/SlugHero/controllers/forum.py'
p100
sg76
(dp101
sg82
I268
sg83
(dp102
I257
S'    grid = SQLFORM.grid(db.post)'
p103
sI258
S'    return locals()'
p104
sI259
S''
sI260
S'@cache.action()'
p105
sI261
S'def download():'
p106
sI262
S'    """'
p107
sI263
S'    allows downloading of uploaded files'
p108
sI264
S'    http://..../[app]/default/download/[filename]'
p109
sI265
S'    """'
p110
sI266
S'    return response.download(request, db)'
p111
ssg95
S'()'
p112
sg97
S'<module>'
p113
sa(dp114
g74
S'/Users/hairongwu/Desktop/web2py/gluon/globals.py'
p115
sg76
(dp116
S'self'
p117
S'undefined'
p118
sS'f'
S'<function addForumImage>'
p119
ssg82
I412
sg83
(dp120
I416
S"        self.generic_patterns = ['*']"
p121
sI407
S"        self.flash = ''            # used by the default view layout"
p122
sI408
S'        self.meta = Storage()      # used by web2py_ajax.html'
p123
sI409
S'        self.menu = []             # used by the default view layout'
p124
sI410
S'        self.files = []            # used by web2py_ajax.html'
p125
sI411
S'        self._vars = None'
p126
sI412
S'        self._caller = lambda f: f()'
p127
sI413
S'        self._view_environment = None'
p128
sI414
S'        self._custom_commit = None'
p129
sI415
S'        self._custom_rollback = None'
p130
ssg95
S'(f=<function addForumImage>)'
p131
sg97
S'<lambda>'
p132
sa(dp133
g74
S'/Users/hairongwu/Desktop/web2py/applications/SlugHero/controllers/forum.py'
p134
sg76
(dp135
S'global db'
p136
S'<DAL uri="sqlite://storage.sqlite">'
p137
sS'post_id'
p138
S'6'
sS'db.forumImage'
p139
S'<Table forumImage (id,post_id,title,image)>'
p140
sS'db.forumImage.post_id'
p141
S'<pydal.objects.Field object>'
p142
ssg82
I49
sg83
(dp143
I44
S'    return locals()'
p144
sI45
S''
sI46
S'def addForumImage():'
p145
sI47
S'    image = db.forumImage(request.args(0,cast=int))'
p146
sI48
S'    post_id= request.args(0,cast=int)'
p147
sI49
S'    db.forumImage.post_id=post_id'
p148
sI50
S'    form =SQLFORM(db.forumImage)'
p149
sI51
S'    #form.post_id.default=post_id'
p150
sI52
S'    #if form.process().accepted:'
p151
sI53
S"    #    redirect(URL('showEachForum', args=forum.post_id))"
p152
ssg95
S'()'
p153
sg97
S'addForumImage'
p154
sa(dp155
g74
S'/Users/hairongwu/Desktop/web2py/gluon/packages/dal/pydal/objects.py'
p156
sg76
(dp157
S'builtinSyntaxError'
p158
S"<type 'exceptions.SyntaxError'>"
p159
sS'key'
p160
S"'post_id'"
p161
ssg82
I589
sg83
(dp162
I584
S'                else:'
p163
sI585
S'                    self._virtual_methods.append(value)'
p164
sI586
S''
sI587
S'    def __setattr__(self, key, value):'
p165
sI588
S"        if key[:1] != '_' and key in self:"
p166
sI589
S"            raise SyntaxError('Object exists and cannot be redefined: %s' % key)"
p167
sI590
S'        self[key] = value'
p168
sI591
S''
sI592
S'    def __delitem__(self, key):'
p169
sI593
S'        if isinstance(key, dict):'
p170
ssg95
S"(self=<Table forumImage (id,post_id,title,image)>, key='post_id', value=6)"
p171
sg97
g26
sasS'pyver'
p172
S'Python 2.7.10: /usr/bin/python (prefix: /System/Library/Frameworks/Python.framework/Versions/2.7)'
p173
sS'session'
p174
g69
(S's\xa5\x0e\x00\x00<div><table><tr><td style="font-weight:bold;vertical-align:top;">args</td><td style="vertical-align:top;">:</td><td><div>None</div></td></tr><tr><td style="font-weight:bold;vertical-align:top;">auth</td><td style="vertical-align:top;">:</td><td><div><table><tr><td style="font-weight:bold;vertical-align:top;">expiration</td><td style="vertical-align:top;">:</td><td><div>2592000</div></td></tr><tr><td style="font-weight:bold;vertical-align:top;">hmac_key</td><td style="vertical-align:top;">:</td><td><div>dd1bf9df-e9d0-4885-9f78-ed875294ea75</div></td></tr><tr><td style="font-weight:bold;vertical-align:top;">last_visit</td><td style="vertical-align:top;">:</td><td><div>datetime.datetime(2016, 2, 26, 15, 54, 4, 791332)</div></td></tr><tr><td style="font-weight:bold;vertical-align:top;">remember_me</td><td style="vertical-align:top;">:</td><td><div>True</div></td></tr><tr><td style="font-weight:bold;vertical-align:top;">user</td><td style="vertical-align:top;">:</td><td><div><table><tr><td style="font-weight:bold;vertical-align:top;">email</td><td style="vertical-align:top;">:</td><td><div>helenhelen@gmail.com</div></td></tr><tr><td style="font-weight:bold;vertical-align:top;">first_name</td><td style="vertical-align:top;">:</td><td><div>helen</div></td></tr><tr><td style="font-weight:bold;vertical-align:top;">id</td><td style="vertical-align:top;">:</td><td><div>6L</div></td></tr><tr><td style="font-weight:bold;vertical-align:top;">image</td><td style="vertical-align:top;">:</td><td><div></div></td></tr><tr><td style="font-weight:bold;vertical-align:top;">last_name</td><td style="vertical-align:top;">:</td><td><div>helen</div></td></tr><tr><td style="font-weight:bold;vertical-align:top;">major</td><td style="vertical-align:top;">:</td><td><div>cmps</div></td></tr><tr><td style="font-weight:bold;vertical-align:top;">minor</td><td style="vertical-align:top;">:</td><td><div></div></td></tr><tr><td style="font-weight:bold;vertical-align:top;">registration_id</td><td style="vertical-align:top;">:</td><td><div></div></td></tr><tr><td style="font-weight:bold;vertical-align:top;">registration_key</td><td style="vertical-align:top;">:</td><td><div></div></td></tr><tr><td style="font-weight:bold;vertical-align:top;">reset_password_key</td><td style="vertical-align:top;">:</td><td><div></div></td></tr><tr><td style="font-weight:bold;vertical-align:top;">second_major</td><td style="vertical-align:top;">:</td><td><div></div></td></tr><tr><td style="font-weight:bold;vertical-align:top;">show_email</td><td style="vertical-align:top;">:</td><td><div>True</div></td></tr><tr><td style="font-weight:bold;vertical-align:top;">term</td><td style="vertical-align:top;">:</td><td><div>Senior</div></td></tr></table></div></td></tr><tr><td style="font-weight:bold;vertical-align:top;">user_groups</td><td style="vertical-align:top;">:</td><td><div><table></table></div></td></tr></table></div></td></tr><tr><td style="font-weight:bold;vertical-align:top;">controller</td><td style="vertical-align:top;">:</td><td><div>None</div></td></tr><tr><td style="font-weight:bold;vertical-align:top;">flash</td><td style="vertical-align:top;">:</td><td><div>None</div></td></tr><tr><td style="font-weight:bold;vertical-align:top;">function</td><td style="vertical-align:top;">:</td><td><div>None</div></td></tr><tr><td style="font-weight:bold;vertical-align:top;">last_orderby</td><td style="vertical-align:top;">:</td><td><div>None</div></td></tr><tr><td style="font-weight:bold;vertical-align:top;">last_query</td><td style="vertical-align:top;">:</td><td><div>db.post.id&gt;0</div></td></tr><tr><td style="font-weight:bold;vertical-align:top;">myCommid</td><td style="vertical-align:top;">:</td><td><div>22L</div></td></tr></table></div>'
tRp175
sS'etype'
p176
S"<type 'exceptions.SyntaxError'>"
p177
sS'date'
p178
S'Sat Feb 27 15:56:30 2016'
p179
sS'response'
p180
g69
(S'sJ!\x00\x00<div><table><tr><td style="font-weight:bold;vertical-align:top;">body</td><td style="vertical-align:top;">:</td><td><div>&lt;cStringIO.StringO object at 0x10f2b3b20&gt;</div></td></tr><tr><td style="font-weight:bold;vertical-align:top;">cookies</td><td style="vertical-align:top;">:</td><td><div><table><tr><td style="font-weight:bold;vertical-align:top;">session_id_slughero</td><td style="vertical-align:top;">:</td><td><div>127.0.0.1-4ebef065-a3b9-42e2-981d-565697235a01<table><tr><td style="font-weight:bold;vertical-align:top;">comment</td><td style="vertical-align:top;">:</td><td><div></div></td></tr><tr><td style="font-weight:bold;vertical-align:top;">domain</td><td style="vertical-align:top;">:</td><td><div></div></td></tr><tr><td style="font-weight:bold;vertical-align:top;">expires</td><td style="vertical-align:top;">:</td><td><div></div></td></tr><tr><td style="font-weight:bold;vertical-align:top;">httponly</td><td style="vertical-align:top;">:</td><td><div></div></td></tr><tr><td style="font-weight:bold;vertical-align:top;">max-age</td><td style="vertical-align:top;">:</td><td><div></div></td></tr><tr><td style="font-weight:bold;vertical-align:top;">path</td><td style="vertical-align:top;">:</td><td><div>/</div></td></tr><tr><td style="font-weight:bold;vertical-align:top;">secure</td><td style="vertical-align:top;">:</td><td><div></div></td></tr><tr><td style="font-weight:bold;vertical-align:top;">version</td><td style="vertical-align:top;">:</td><td><div></div></td></tr></table></div></td></tr></table></div></td></tr><tr><td style="font-weight:bold;vertical-align:top;">delimiters</td><td style="vertical-align:top;">:</td><td><div><table><tr><td><div>{{</div></td></tr><tr><td><div>}}</div></td></tr></table></div></td></tr><tr><td style="font-weight:bold;vertical-align:top;">files</td><td style="vertical-align:top;">:</td><td><div><table></table></div></td></tr><tr><td style="font-weight:bold;vertical-align:top;">flash</td><td style="vertical-align:top;">:</td><td><div></div></td></tr><tr><td style="font-weight:bold;vertical-align:top;">form_label_separator</td><td style="vertical-align:top;">:</td><td><div></div></td></tr><tr><td style="font-weight:bold;vertical-align:top;">formstyle</td><td style="vertical-align:top;">:</td><td><div>bootstrap3_inline</div></td></tr><tr><td style="font-weight:bold;vertical-align:top;">generic_patterns</td><td style="vertical-align:top;">:</td><td><div><table><tr><td><div>*</div></td></tr></table></div></td></tr><tr><td style="font-weight:bold;vertical-align:top;">google_analytics_id</td><td style="vertical-align:top;">:</td><td><div>None</div></td></tr><tr><td style="font-weight:bold;vertical-align:top;">headers</td><td style="vertical-align:top;">:</td><td><div><table><tr><td style="font-weight:bold;vertical-align:top;">X-Powered-By</td><td style="vertical-align:top;">:</td><td><div>web2py</div></td></tr></table></div></td></tr><tr><td style="font-weight:bold;vertical-align:top;">logo</td><td style="vertical-align:top;">:</td><td><div><a class="navbar-brand" href="http://www.web2py.com/" id="web2py-logo"><b>Slug Hero</b>&trade;&nbsp;</a></div></td></tr><tr><td style="font-weight:bold;vertical-align:top;">menu</td><td style="vertical-align:top;">:</td><td><div><table><tr><td><div><table><tr><td><div>Home</div></td></tr><tr><td><div>False</div></td></tr><tr><td><div>/SlugHero/default/index</div></td></tr><tr><td><div><table></table></div></td></tr></table></div></td></tr><tr><td><div><table><tr><td><div>Department</div></td></tr><tr><td><div>False</div></td></tr><tr><td><div>/SlugHero/default/showDepartment</div></td></tr></table></div></td></tr><tr><td><div><table><tr><td><div>Professor</div></td></tr><tr><td><div>False</div></td></tr><tr><td><div>/SlugHero/professor/showProfessor</div></td></tr></table></div></td></tr><tr><td><div><table><tr><td><div>Textbook Exchange</div></td></tr><tr><td><div>False</div></td></tr><tr><td><div>/SlugHero/forum/bookExchange</div></td></tr></table></div></td></tr><tr><td><div><table><tr><td><div>Forum</div></td></tr><tr><td><div>False</div></td></tr><tr><td><div>/SlugHero/forum/generalForum</div></td></tr></table></div></td></tr><tr><td><div><table><tr><td><div>my Profile</div></td></tr><tr><td><div>False</div></td></tr><tr><td><div>/SlugHero/userProfile/showProfile/6?fromMenu=True</div></td></tr></table></div></td></tr></table></div></td></tr><tr><td style="font-weight:bold;vertical-align:top;">meta</td><td style="vertical-align:top;">:</td><td><div><table><tr><td style="font-weight:bold;vertical-align:top;">author</td><td style="vertical-align:top;">:</td><td><div>Your Name &lt;you@example.com&gt;</div></td></tr><tr><td style="font-weight:bold;vertical-align:top;">description</td><td style="vertical-align:top;">:</td><td><div>a cool new app</div></td></tr><tr><td style="font-weight:bold;vertical-align:top;">generator</td><td style="vertical-align:top;">:</td><td><div>Web2py Web Framework</div></td></tr><tr><td style="font-weight:bold;vertical-align:top;">keywords</td><td style="vertical-align:top;">:</td><td><div>web2py, python, framework</div></td></tr></table></div></td></tr><tr><td style="font-weight:bold;vertical-align:top;">models_to_run</td><td style="vertical-align:top;">:</td><td><div><table><tr><td><div>^\\w+\\.py$</div></td></tr><tr><td><div>^forum/\\w+\\.py$</div></td></tr><tr><td><div>^forum/addForumImage/\\w+\\.py$</div></td></tr></table></div></td></tr><tr><td style="font-weight:bold;vertical-align:top;">postprocessing</td><td style="vertical-align:top;">:</td><td><div><table></table></div></td></tr><tr><td style="font-weight:bold;vertical-align:top;">session_client</td><td style="vertical-align:top;">:</td><td><div>127.0.0.1</div></td></tr><tr><td style="font-weight:bold;vertical-align:top;">session_cookie_compression_level</td><td style="vertical-align:top;">:</td><td><div>None</div></td></tr><tr><td style="font-weight:bold;vertical-align:top;">session_cookie_expires</td><td style="vertical-align:top;">:</td><td><div>2592000</div></td></tr><tr><td style="font-weight:bold;vertical-align:top;">session_cookie_key</td><td style="vertical-align:top;">:</td><td><div>None</div></td></tr><tr><td style="font-weight:bold;vertical-align:top;">session_data_name</td><td style="vertical-align:top;">:</td><td><div>session_data_slughero</div></td></tr><tr><td style="font-weight:bold;vertical-align:top;">session_file</td><td style="vertical-align:top;">:</td><td><div>&lt;open file &#x27;/Users/hairongwu/Desktop/web2py/applications/SlugHero/sessions/0de/1b9/127.0.0.1-4ebef065-a3b9-42e2-981d-565697235a01&#x27;, mode &#x27;rb+&#x27; at 0x10e1d6270&gt;</div></td></tr><tr><td style="font-weight:bold;vertical-align:top;">session_filename</td><td style="vertical-align:top;">:</td><td><div>/Users/hairongwu/Desktop/web2py/applications/SlugHero/sessions/127.0.0.1-4ebef065-a3b9-42e2-981d-565697235a01</div></td></tr><tr><td style="font-weight:bold;vertical-align:top;">session_hash</td><td style="vertical-align:top;">:</td><td><div>cd865a48fc5d30722908fae62244e635</div></td></tr><tr><td style="font-weight:bold;vertical-align:top;">session_id</td><td style="vertical-align:top;">:</td><td><div>127.0.0.1-4ebef065-a3b9-42e2-981d-565697235a01</div></td></tr><tr><td style="font-weight:bold;vertical-align:top;">session_id_name</td><td style="vertical-align:top;">:</td><td><div>session_id_slughero</div></td></tr><tr><td style="font-weight:bold;vertical-align:top;">session_locked</td><td style="vertical-align:top;">:</td><td><div>True</div></td></tr><tr><td style="font-weight:bold;vertical-align:top;">session_masterapp</td><td style="vertical-align:top;">:</td><td><div>SlugHero</div></td></tr><tr><td style="font-weight:bold;vertical-align:top;">session_new</td><td style="vertical-align:top;">:</td><td><div>False</div></td></tr><tr><td style="font-weight:bold;vertical-align:top;">session_storage_type</td><td style="vertical-align:top;">:</td><td><div>file</div></td></tr><tr><td style="font-weight:bold;vertical-align:top;">status</td><td style="vertical-align:top;">:</td><td><div>200</div></td></tr><tr><td style="font-weight:bold;vertical-align:top;">subtitle</td><td style="vertical-align:top;">:</td><td><div></div></td></tr><tr><td style="font-weight:bold;vertical-align:top;">title</td><td style="vertical-align:top;">:</td><td><div>Slughero</div></td></tr><tr><td style="font-weight:bold;vertical-align:top;">view</td><td style="vertical-align:top;">:</td><td><div>forum/addForumImage.html</div></td></tr></table></div>'
tRp181
sS'locals'
p182
(dp183
S'self'
p184
S'<Table forumImage (id,post_id,title,image)>'
p185
sS'value'
p186
S'6'
sS'key'
p187
S"'post_id'"
p188
sssS'traceback'
p189
S'Traceback (most recent call last):\n  File "/Users/hairongwu/Desktop/web2py/gluon/restricted.py", line 227, in restricted\n    exec ccode in environment\n  File "/Users/hairongwu/Desktop/web2py/applications/SlugHero/controllers/forum.py", line 268, in <module>\n  File "/Users/hairongwu/Desktop/web2py/gluon/globals.py", line 412, in <lambda>\n    self._caller = lambda f: f()\n  File "/Users/hairongwu/Desktop/web2py/applications/SlugHero/controllers/forum.py", line 49, in addForumImage\n    db.forumImage.post_id=post_id\n  File "/Users/hairongwu/Desktop/web2py/gluon/packages/dal/pydal/objects.py", line 589, in __setattr__\n    raise SyntaxError(\'Object exists and cannot be redefined: %s\' % key)\nSyntaxError: Object exists and cannot be redefined: post_id\n'
p190
s.